ARM GAS  /var/folders/v1/156fk8j97zv9pzndh61fy7zm0000gn/T//cc9ANSfA.s 			page 1


   1              		.cpu cortex-m7
   2              		.arch armv7e-m
   3              		.fpu fpv5-d16
   4              		.eabi_attribute 28, 1
   5              		.eabi_attribute 20, 1
   6              		.eabi_attribute 21, 1
   7              		.eabi_attribute 23, 3
   8              		.eabi_attribute 24, 1
   9              		.eabi_attribute 25, 1
  10              		.eabi_attribute 26, 1
  11              		.eabi_attribute 30, 2
  12              		.eabi_attribute 34, 1
  13              		.eabi_attribute 18, 4
  14              		.file	"main.cpp"
  15              		.text
  16              	.Ltext0:
  17              		.cfi_sections	.debug_frame
  18              		.file 1 "main.cpp"
  19              		.section	.text._ZN5daisy10DaisyLegioD2Ev,"axG",%progbits,_ZN5daisy10DaisyLegioD5Ev,comdat
  20              		.align	1
  21              		.p2align 2,,3
  22              		.weak	_ZN5daisy10DaisyLegioD2Ev
  23              		.syntax unified
  24              		.thumb
  25              		.thumb_func
  27              	_ZN5daisy10DaisyLegioD2Ev:
  28              	.LVL0:
  29              	.LFB2546:
  30              		.file 2 "../libDaisy/src/daisy_legio.h"
   1:../libDaisy/src/daisy_legio.h **** #pragma once
   2:../libDaisy/src/daisy_legio.h **** #include "daisy_seed.h"
   3:../libDaisy/src/daisy_legio.h **** 
   4:../libDaisy/src/daisy_legio.h **** namespace daisy
   5:../libDaisy/src/daisy_legio.h **** {
   6:../libDaisy/src/daisy_legio.h **** /**
   7:../libDaisy/src/daisy_legio.h ****     @brief Class that handles initializing all of the hardware specific to the Virt Iter Legio hard
   8:../libDaisy/src/daisy_legio.h ****     Helper funtions are also in place to provide easy access to built-in controls and peripherals.
   9:../libDaisy/src/daisy_legio.h ****     @author Eris Fairbanks, Olivia Artz Modular + Noise Engineering
  10:../libDaisy/src/daisy_legio.h ****     @date June 2022
  11:../libDaisy/src/daisy_legio.h ****     @ingroup boards
  12:../libDaisy/src/daisy_legio.h **** */
  13:../libDaisy/src/daisy_legio.h **** class DaisyLegio
  14:../libDaisy/src/daisy_legio.h **** {
  15:../libDaisy/src/daisy_legio.h ****   public:
  16:../libDaisy/src/daisy_legio.h ****     // ENUMS to help index 2 LEDs, 2 controls/CV inputs, 2 3-position switches
  17:../libDaisy/src/daisy_legio.h ****     enum LEGIO_LEDS
  18:../libDaisy/src/daisy_legio.h ****     {
  19:../libDaisy/src/daisy_legio.h ****         LED_LEFT,
  20:../libDaisy/src/daisy_legio.h ****         LED_RIGHT,
  21:../libDaisy/src/daisy_legio.h ****         LED_LAST
  22:../libDaisy/src/daisy_legio.h ****     };
  23:../libDaisy/src/daisy_legio.h **** 
  24:../libDaisy/src/daisy_legio.h ****     enum LEGIO_CONTROLS
  25:../libDaisy/src/daisy_legio.h ****     {
  26:../libDaisy/src/daisy_legio.h ****         CONTROL_PITCH,
  27:../libDaisy/src/daisy_legio.h ****         CONTROL_KNOB_TOP,
  28:../libDaisy/src/daisy_legio.h ****         CONTROL_KNOB_BOTTOM,
ARM GAS  /var/folders/v1/156fk8j97zv9pzndh61fy7zm0000gn/T//cc9ANSfA.s 			page 2


  29:../libDaisy/src/daisy_legio.h ****         CONTROL_LAST
  30:../libDaisy/src/daisy_legio.h ****     };
  31:../libDaisy/src/daisy_legio.h **** 
  32:../libDaisy/src/daisy_legio.h ****     enum LEGIO_TOGGLE3
  33:../libDaisy/src/daisy_legio.h ****     {
  34:../libDaisy/src/daisy_legio.h ****         SW_LEFT,
  35:../libDaisy/src/daisy_legio.h ****         SW_RIGHT,
  36:../libDaisy/src/daisy_legio.h ****         SW_LAST
  37:../libDaisy/src/daisy_legio.h ****     };
  38:../libDaisy/src/daisy_legio.h **** 
  39:../libDaisy/src/daisy_legio.h ****     DaisyLegio() {}
  40:../libDaisy/src/daisy_legio.h ****     ~DaisyLegio() {}
  31              		.loc 2 40 5 view -0
  32              		.cfi_startproc
  33              		@ args = 0, pretend = 0, frame = 0
  34              		@ frame_needed = 0, uses_anonymous_args = 0
  35              		@ link register save eliminated.
  36              	.LBB913:
  37              	.LBB914:
  38              	.LBI914:
  39              		.file 3 "../libDaisy/src/hid/gatein.h"
   1:../libDaisy/src/hid/gatein.h **** #pragma once
   2:../libDaisy/src/hid/gatein.h **** #ifndef DSY_GATEIN_H
   3:../libDaisy/src/hid/gatein.h **** #define DSY_GATEIN_H
   4:../libDaisy/src/hid/gatein.h **** #include "per/gpio.h"
   5:../libDaisy/src/hid/gatein.h **** 
   6:../libDaisy/src/hid/gatein.h **** namespace daisy
   7:../libDaisy/src/hid/gatein.h **** {
   8:../libDaisy/src/hid/gatein.h **** /**
   9:../libDaisy/src/hid/gatein.h ****    @brief Generic Class for handling gate inputs through GPIO.
  10:../libDaisy/src/hid/gatein.h ****    @author Stephen Hensley
  11:../libDaisy/src/hid/gatein.h ****    @date    March 2020
  12:../libDaisy/src/hid/gatein.h ****    @ingroup controls
  13:../libDaisy/src/hid/gatein.h **** */
  14:../libDaisy/src/hid/gatein.h **** class GateIn
  15:../libDaisy/src/hid/gatein.h **** {
  16:../libDaisy/src/hid/gatein.h ****   public:
  17:../libDaisy/src/hid/gatein.h ****     /** GateIn Constructor */
  18:../libDaisy/src/hid/gatein.h ****     GateIn() {}
  19:../libDaisy/src/hid/gatein.h **** 
  20:../libDaisy/src/hid/gatein.h ****     /** GateIn Destructor */
  21:../libDaisy/src/hid/gatein.h ****     ~GateIn() {}
  40              		.loc 3 21 5 view .LVU1
  41              		.loc 3 21 5 is_stmt 0 view .LVU2
  42              	.LBE914:
  43              	.LBB915:
  44              	.LBI915:
  45              		.file 4 "../libDaisy/src/hid/encoder.h"
   1:../libDaisy/src/hid/encoder.h **** #pragma once
   2:../libDaisy/src/hid/encoder.h **** #ifndef DSY_ENCODER_H
   3:../libDaisy/src/hid/encoder.h **** #define DSY_ENCODER_H
   4:../libDaisy/src/hid/encoder.h **** #include "daisy_core.h"
   5:../libDaisy/src/hid/encoder.h **** #include "per/gpio.h"
   6:../libDaisy/src/hid/encoder.h **** #include "hid/switch.h"
   7:../libDaisy/src/hid/encoder.h **** 
   8:../libDaisy/src/hid/encoder.h **** namespace daisy
   9:../libDaisy/src/hid/encoder.h **** {
ARM GAS  /var/folders/v1/156fk8j97zv9pzndh61fy7zm0000gn/T//cc9ANSfA.s 			page 3


  10:../libDaisy/src/hid/encoder.h **** /** 
  11:../libDaisy/src/hid/encoder.h ****     @brief Generic Class for handling Quadrature Encoders \n 
  12:../libDaisy/src/hid/encoder.h ****     Inspired/influenced by Mutable Instruments (pichenettes) Encoder classes
  13:../libDaisy/src/hid/encoder.h ****     @author Stephen Hensley
  14:../libDaisy/src/hid/encoder.h ****     @date December 2019
  15:../libDaisy/src/hid/encoder.h ****     @ingroup controls
  16:../libDaisy/src/hid/encoder.h **** */
  17:../libDaisy/src/hid/encoder.h **** class Encoder
  18:../libDaisy/src/hid/encoder.h **** {
  19:../libDaisy/src/hid/encoder.h ****   public:
  20:../libDaisy/src/hid/encoder.h ****     Encoder() {}
  21:../libDaisy/src/hid/encoder.h ****     ~Encoder() {}
  46              		.loc 4 21 5 is_stmt 1 view .LVU3
  47              	.LBB916:
  48              	.LBI916:
  49              		.file 5 "../libDaisy/src/hid/switch.h"
   1:../libDaisy/src/hid/switch.h **** #pragma once
   2:../libDaisy/src/hid/switch.h **** #ifndef DSY_SWITCH_H
   3:../libDaisy/src/hid/switch.h **** #define DSY_SWITCH_H
   4:../libDaisy/src/hid/switch.h **** #include "daisy_core.h"
   5:../libDaisy/src/hid/switch.h **** #include "per/gpio.h"
   6:../libDaisy/src/hid/switch.h **** #include "sys/system.h"
   7:../libDaisy/src/hid/switch.h **** 
   8:../libDaisy/src/hid/switch.h **** namespace daisy
   9:../libDaisy/src/hid/switch.h **** {
  10:../libDaisy/src/hid/switch.h **** /** 
  11:../libDaisy/src/hid/switch.h ****     Generic Class for handling momentary/latching switches \n 
  12:../libDaisy/src/hid/switch.h ****     Inspired/influenced by Mutable Instruments (pichenettes) Switch classes
  13:../libDaisy/src/hid/switch.h ****     @author Stephen Hensley
  14:../libDaisy/src/hid/switch.h ****     @date December 2019
  15:../libDaisy/src/hid/switch.h ****     @ingroup controls
  16:../libDaisy/src/hid/switch.h **** */
  17:../libDaisy/src/hid/switch.h **** class Switch
  18:../libDaisy/src/hid/switch.h **** {
  19:../libDaisy/src/hid/switch.h ****   public:
  20:../libDaisy/src/hid/switch.h ****     /** Specifies the expected behavior of the switch */
  21:../libDaisy/src/hid/switch.h ****     enum Type
  22:../libDaisy/src/hid/switch.h ****     {
  23:../libDaisy/src/hid/switch.h ****         TYPE_TOGGLE,    /**< & */
  24:../libDaisy/src/hid/switch.h ****         TYPE_MOMENTARY, /**< & */
  25:../libDaisy/src/hid/switch.h ****     };
  26:../libDaisy/src/hid/switch.h ****     /** Specifies whether the pressed is HIGH or LOW. */
  27:../libDaisy/src/hid/switch.h ****     enum Polarity
  28:../libDaisy/src/hid/switch.h ****     {
  29:../libDaisy/src/hid/switch.h ****         POLARITY_NORMAL,   /**< & */
  30:../libDaisy/src/hid/switch.h ****         POLARITY_INVERTED, /**< & */
  31:../libDaisy/src/hid/switch.h ****     };
  32:../libDaisy/src/hid/switch.h **** 
  33:../libDaisy/src/hid/switch.h ****     Switch() {}
  34:../libDaisy/src/hid/switch.h ****     ~Switch() {}
  50              		.loc 5 34 5 view .LVU4
  51              		.loc 5 34 5 is_stmt 0 view .LVU5
  52              	.LBE916:
  53              	.LBE915:
  54              	.LBB917:
  55              	.LBI917:
  56              		.file 6 "../libDaisy/src/daisy_seed.h"
ARM GAS  /var/folders/v1/156fk8j97zv9pzndh61fy7zm0000gn/T//cc9ANSfA.s 			page 4


   1:../libDaisy/src/daisy_seed.h **** #pragma once
   2:../libDaisy/src/daisy_seed.h **** #ifndef DSY_SEED_H
   3:../libDaisy/src/daisy_seed.h **** #define DSY_SEED_H
   4:../libDaisy/src/daisy_seed.h **** 
   5:../libDaisy/src/daisy_seed.h **** #include "daisy.h"
   6:../libDaisy/src/daisy_seed.h **** 
   7:../libDaisy/src/daisy_seed.h **** //Uncomment this out if you're still using the rev2 hardware
   8:../libDaisy/src/daisy_seed.h **** //#define SEED_REV2
   9:../libDaisy/src/daisy_seed.h **** 
  10:../libDaisy/src/daisy_seed.h **** namespace daisy
  11:../libDaisy/src/daisy_seed.h **** {
  12:../libDaisy/src/daisy_seed.h **** /**
  13:../libDaisy/src/daisy_seed.h ****    @brief This is the higher-level interface for the Daisy board. \n 
  14:../libDaisy/src/daisy_seed.h ****     All basic peripheral configuration/initialization is setup here. \n
  15:../libDaisy/src/daisy_seed.h **** 
  16:../libDaisy/src/daisy_seed.h ****    @ingroup boards
  17:../libDaisy/src/daisy_seed.h **** */
  18:../libDaisy/src/daisy_seed.h **** class DaisySeed
  19:../libDaisy/src/daisy_seed.h **** {
  20:../libDaisy/src/daisy_seed.h ****   public:
  21:../libDaisy/src/daisy_seed.h ****     DaisySeed() {}
  22:../libDaisy/src/daisy_seed.h ****     ~DaisySeed() {}
  57              		.loc 6 22 5 is_stmt 1 view .LVU6
  58              	.LBB918:
  59              	.LBI918:
  60              		.file 7 "../libDaisy/src/dev/codec_ak4556.h"
   1:../libDaisy/src/dev/codec_ak4556.h **** #pragma once
   2:../libDaisy/src/dev/codec_ak4556.h **** #ifndef DSY_CODEC_AK4556_H
   3:../libDaisy/src/dev/codec_ak4556.h **** #define DSY_CODEC_AK4556_H
   4:../libDaisy/src/dev/codec_ak4556.h **** 
   5:../libDaisy/src/dev/codec_ak4556.h **** #include "daisy_core.h"
   6:../libDaisy/src/dev/codec_ak4556.h **** #include "per/gpio.h"
   7:../libDaisy/src/dev/codec_ak4556.h **** 
   8:../libDaisy/src/dev/codec_ak4556.h **** namespace daisy
   9:../libDaisy/src/dev/codec_ak4556.h **** {
  10:../libDaisy/src/dev/codec_ak4556.h **** /** @brief Ak4556 Codec support 
  11:../libDaisy/src/dev/codec_ak4556.h ****  ** @author shensley
  12:../libDaisy/src/dev/codec_ak4556.h ****  ** @addtogroup codec
  13:../libDaisy/src/dev/codec_ak4556.h ****  ** 
  14:../libDaisy/src/dev/codec_ak4556.h ****  ** I don't see any real reason to have this be more than a function, but in case we want
  15:../libDaisy/src/dev/codec_ak4556.h ****  ** to add other functions down the road I wrapped the function in a class.
  16:../libDaisy/src/dev/codec_ak4556.h ****  ***/
  17:../libDaisy/src/dev/codec_ak4556.h **** class Ak4556
  18:../libDaisy/src/dev/codec_ak4556.h **** {
  19:../libDaisy/src/dev/codec_ak4556.h ****   public:
  20:../libDaisy/src/dev/codec_ak4556.h ****     Ak4556() {}
  21:../libDaisy/src/dev/codec_ak4556.h ****     ~Ak4556() {}
  61              		.loc 7 21 5 view .LVU7
  62              		.loc 7 21 5 is_stmt 0 view .LVU8
  63              	.LBE918:
  64              	.LBB919:
  65              	.LBI919:
  66              		.file 8 "../libDaisy/src/sys/system.h"
   1:../libDaisy/src/sys/system.h **** #ifndef DSY_SYSTEM_H
   2:../libDaisy/src/sys/system.h **** #define DSY_SYSTEM_H
   3:../libDaisy/src/sys/system.h **** 
   4:../libDaisy/src/sys/system.h **** #ifndef UNIT_TEST // for unit tests, a dummy implementation is provided below
ARM GAS  /var/folders/v1/156fk8j97zv9pzndh61fy7zm0000gn/T//cc9ANSfA.s 			page 5


   5:../libDaisy/src/sys/system.h **** 
   6:../libDaisy/src/sys/system.h **** #include <cstdint>
   7:../libDaisy/src/sys/system.h **** #include "per/tim.h"
   8:../libDaisy/src/sys/system.h **** 
   9:../libDaisy/src/sys/system.h **** namespace daisy
  10:../libDaisy/src/sys/system.h **** {
  11:../libDaisy/src/sys/system.h **** /** A handle for interacting with the Core System.
  12:../libDaisy/src/sys/system.h ****  ** This includes the Clock tree, MPU, global DMA initialization,
  13:../libDaisy/src/sys/system.h ****  ** cache handling, and any other necessary global initiailzation
  14:../libDaisy/src/sys/system.h ****  **
  15:../libDaisy/src/sys/system.h ****  ** @author shensley
  16:../libDaisy/src/sys/system.h ****  ** @ingroup system
  17:../libDaisy/src/sys/system.h ****  */
  18:../libDaisy/src/sys/system.h **** class System
  19:../libDaisy/src/sys/system.h **** {
  20:../libDaisy/src/sys/system.h ****   public:
  21:../libDaisy/src/sys/system.h ****     /** Contains settings for initializing the System */
  22:../libDaisy/src/sys/system.h ****     struct Config
  23:../libDaisy/src/sys/system.h ****     {
  24:../libDaisy/src/sys/system.h ****         /** Specifies the system clock frequency that feeds APB/AHB clocks, etc. */
  25:../libDaisy/src/sys/system.h ****         enum class SysClkFreq
  26:../libDaisy/src/sys/system.h ****         {
  27:../libDaisy/src/sys/system.h ****             FREQ_400MHZ,
  28:../libDaisy/src/sys/system.h ****             FREQ_480MHZ,
  29:../libDaisy/src/sys/system.h ****         };
  30:../libDaisy/src/sys/system.h **** 
  31:../libDaisy/src/sys/system.h ****         /** Method to call on the struct to set to defaults
  32:../libDaisy/src/sys/system.h ****          ** CPU Freq set to 400MHz
  33:../libDaisy/src/sys/system.h ****          ** Cache Enabled
  34:../libDaisy/src/sys/system.h ****          ** */
  35:../libDaisy/src/sys/system.h ****         void Defaults()
  36:../libDaisy/src/sys/system.h ****         {
  37:../libDaisy/src/sys/system.h ****             cpu_freq    = SysClkFreq::FREQ_400MHZ;
  38:../libDaisy/src/sys/system.h ****             use_dcache  = true;
  39:../libDaisy/src/sys/system.h ****             use_icache  = true;
  40:../libDaisy/src/sys/system.h ****             skip_clocks = false;
  41:../libDaisy/src/sys/system.h ****         }
  42:../libDaisy/src/sys/system.h **** 
  43:../libDaisy/src/sys/system.h ****         /** Method to call on the struct to set to boost mode:
  44:../libDaisy/src/sys/system.h ****          ** CPU Freq set to 480MHz
  45:../libDaisy/src/sys/system.h ****          ** Cache Enabled
  46:../libDaisy/src/sys/system.h ****          ** */
  47:../libDaisy/src/sys/system.h ****         void Boost()
  48:../libDaisy/src/sys/system.h ****         {
  49:../libDaisy/src/sys/system.h ****             cpu_freq    = SysClkFreq::FREQ_480MHZ;
  50:../libDaisy/src/sys/system.h ****             use_dcache  = true;
  51:../libDaisy/src/sys/system.h ****             use_icache  = true;
  52:../libDaisy/src/sys/system.h ****             skip_clocks = false;
  53:../libDaisy/src/sys/system.h ****         }
  54:../libDaisy/src/sys/system.h **** 
  55:../libDaisy/src/sys/system.h ****         SysClkFreq cpu_freq;
  56:../libDaisy/src/sys/system.h ****         bool       use_dcache;
  57:../libDaisy/src/sys/system.h ****         bool       use_icache;
  58:../libDaisy/src/sys/system.h ****         bool       skip_clocks;
  59:../libDaisy/src/sys/system.h ****     };
  60:../libDaisy/src/sys/system.h **** 
  61:../libDaisy/src/sys/system.h ****     /** Describes the different regions of memory available to the Daisy */
ARM GAS  /var/folders/v1/156fk8j97zv9pzndh61fy7zm0000gn/T//cc9ANSfA.s 			page 6


  62:../libDaisy/src/sys/system.h ****     enum MemoryRegion
  63:../libDaisy/src/sys/system.h ****     {
  64:../libDaisy/src/sys/system.h ****         INTERNAL_FLASH = 0,
  65:../libDaisy/src/sys/system.h ****         ITCMRAM,
  66:../libDaisy/src/sys/system.h ****         DTCMRAM,
  67:../libDaisy/src/sys/system.h ****         SRAM_D1,
  68:../libDaisy/src/sys/system.h ****         SRAM_D2,
  69:../libDaisy/src/sys/system.h ****         SRAM_D3,
  70:../libDaisy/src/sys/system.h ****         SDRAM,
  71:../libDaisy/src/sys/system.h ****         QSPI,
  72:../libDaisy/src/sys/system.h ****         INVALID_ADDRESS,
  73:../libDaisy/src/sys/system.h ****     };
  74:../libDaisy/src/sys/system.h **** 
  75:../libDaisy/src/sys/system.h ****     /** Bootloader struct for controlling bootloading parameters */
  76:../libDaisy/src/sys/system.h ****     struct BootInfo
  77:../libDaisy/src/sys/system.h ****     {
  78:../libDaisy/src/sys/system.h ****         enum class Type : uint32_t
  79:../libDaisy/src/sys/system.h ****         {
  80:../libDaisy/src/sys/system.h ****             INVALID      = 0x00000000,
  81:../libDaisy/src/sys/system.h ****             JUMP         = 0xDEADBEEF,
  82:../libDaisy/src/sys/system.h ****             SKIP_TIMEOUT = 0x5AFEB007,
  83:../libDaisy/src/sys/system.h ****             INF_TIMEOUT  = 0xB0074EFA,
  84:../libDaisy/src/sys/system.h ****         } status;
  85:../libDaisy/src/sys/system.h ****         uint32_t data;
  86:../libDaisy/src/sys/system.h ****         enum class Version : uint32_t
  87:../libDaisy/src/sys/system.h ****         {
  88:../libDaisy/src/sys/system.h ****             LT_v6_0 = 0, // Less than v6.0
  89:../libDaisy/src/sys/system.h ****             NONE,        // No bootloader present
  90:../libDaisy/src/sys/system.h ****             v6_0,        // v6.0
  91:../libDaisy/src/sys/system.h ****             v6_1,        // v6.1 or greater
  92:../libDaisy/src/sys/system.h ****             LAST
  93:../libDaisy/src/sys/system.h ****         } version;
  94:../libDaisy/src/sys/system.h ****     };
  95:../libDaisy/src/sys/system.h **** 
  96:../libDaisy/src/sys/system.h ****     System() {}
  97:../libDaisy/src/sys/system.h ****     ~System() {}
  67              		.loc 8 97 5 is_stmt 1 view .LVU9
  68              		.loc 8 97 5 is_stmt 0 view .LVU10
  69              	.LBE919:
  70              	.LBB920:
  71              	.LBI920:
  72              		.file 9 "../libDaisy/src/hid/usb.h"
   1:../libDaisy/src/hid/usb.h **** #pragma once
   2:../libDaisy/src/hid/usb.h **** #ifndef DSY_HID_USB_H
   3:../libDaisy/src/hid/usb.h **** #define DSY_HID_USB_H
   4:../libDaisy/src/hid/usb.h **** #include <stdint.h>
   5:../libDaisy/src/hid/usb.h **** #include <stdlib.h>
   6:../libDaisy/src/hid/usb.h **** 
   7:../libDaisy/src/hid/usb.h **** namespace daisy
   8:../libDaisy/src/hid/usb.h **** /** @addtogroup human_interface
   9:../libDaisy/src/hid/usb.h ****     @{
  10:../libDaisy/src/hid/usb.h **** */
  11:../libDaisy/src/hid/usb.h **** 
  12:../libDaisy/src/hid/usb.h **** {
  13:../libDaisy/src/hid/usb.h **** /** 
  14:../libDaisy/src/hid/usb.h ****     @brief Interface for initializing and using the USB Peripherals on the daisy
  15:../libDaisy/src/hid/usb.h ****     @author Stephen Hensley
ARM GAS  /var/folders/v1/156fk8j97zv9pzndh61fy7zm0000gn/T//cc9ANSfA.s 			page 7


  16:../libDaisy/src/hid/usb.h ****     @date December 2019
  17:../libDaisy/src/hid/usb.h **** */
  18:../libDaisy/src/hid/usb.h **** class UsbHandle
  19:../libDaisy/src/hid/usb.h **** {
  20:../libDaisy/src/hid/usb.h ****   public:
  21:../libDaisy/src/hid/usb.h ****     /** Return values for USBHandle Functions */
  22:../libDaisy/src/hid/usb.h ****     enum class Result
  23:../libDaisy/src/hid/usb.h ****     {
  24:../libDaisy/src/hid/usb.h ****         OK,
  25:../libDaisy/src/hid/usb.h ****         ERR,
  26:../libDaisy/src/hid/usb.h ****     };
  27:../libDaisy/src/hid/usb.h **** 
  28:../libDaisy/src/hid/usb.h ****     /** Specified which of the two USB Peripherals to initialize. */
  29:../libDaisy/src/hid/usb.h ****     enum UsbPeriph
  30:../libDaisy/src/hid/usb.h ****     {
  31:../libDaisy/src/hid/usb.h ****         FS_INTERNAL, /**< Internal pin */
  32:../libDaisy/src/hid/usb.h ****         FS_EXTERNAL, /**< FS External D+ pin is Pin 38 (GPIO32). FS External D- pin is Pin 37 (GPIO
  33:../libDaisy/src/hid/usb.h ****         FS_BOTH,     /**< Both */
  34:../libDaisy/src/hid/usb.h ****     };
  35:../libDaisy/src/hid/usb.h **** 
  36:../libDaisy/src/hid/usb.h **** 
  37:../libDaisy/src/hid/usb.h ****     /** Function called upon reception of a buffer */
  38:../libDaisy/src/hid/usb.h ****     typedef void (*ReceiveCallback)(uint8_t* buff, uint32_t* len);
  39:../libDaisy/src/hid/usb.h **** 
  40:../libDaisy/src/hid/usb.h ****     UsbHandle() {}
  41:../libDaisy/src/hid/usb.h **** 
  42:../libDaisy/src/hid/usb.h ****     ~UsbHandle() {}
  73              		.loc 9 42 5 is_stmt 1 view .LVU11
  74              		.loc 9 42 5 is_stmt 0 view .LVU12
  75              	.LBE920:
  76              	.LBB921:
  77              	.LBI921:
  78              		.file 10 "../libDaisy/src/per/adc.h"
   1:../libDaisy/src/per/adc.h **** #pragma once
   2:../libDaisy/src/per/adc.h **** #ifndef DSY_ADC_H
   3:../libDaisy/src/per/adc.h **** #define DSY_ADC_H /**< Macro */
   4:../libDaisy/src/per/adc.h **** #include <stdint.h>
   5:../libDaisy/src/per/adc.h **** #include <stdlib.h>
   6:../libDaisy/src/per/adc.h **** #include "daisy_core.h"
   7:../libDaisy/src/per/adc.h **** #include "per/gpio.h"
   8:../libDaisy/src/per/adc.h **** 
   9:../libDaisy/src/per/adc.h **** #define DSY_ADC_MAX_CHANNELS 16 /**< Maximum number of ADC channels */
  10:../libDaisy/src/per/adc.h **** 
  11:../libDaisy/src/per/adc.h **** namespace daisy
  12:../libDaisy/src/per/adc.h **** {
  13:../libDaisy/src/per/adc.h **** /** @addtogroup per_analog
  14:../libDaisy/src/per/adc.h ****     @{
  15:../libDaisy/src/per/adc.h **** */
  16:../libDaisy/src/per/adc.h **** 
  17:../libDaisy/src/per/adc.h **** /* While there may not be many configuration options here,
  18:../libDaisy/src/per/adc.h **** using a struct like this allows us to add more configuration
  19:../libDaisy/src/per/adc.h **** later without breaking existing functionality.
  20:../libDaisy/src/per/adc.h **** */
  21:../libDaisy/src/per/adc.h **** 
  22:../libDaisy/src/per/adc.h **** /** @brief   Configuration Structure for an ADC Channel 
  23:../libDaisy/src/per/adc.h ****  *  @details This can be used to configure a a single input, 
  24:../libDaisy/src/per/adc.h ****  *           or a multiplexed input, allowing up to 8 inputs on 
ARM GAS  /var/folders/v1/156fk8j97zv9pzndh61fy7zm0000gn/T//cc9ANSfA.s 			page 8


  25:../libDaisy/src/per/adc.h ****  *           one channel.
  26:../libDaisy/src/per/adc.h ****  *  @note    Sharing data lines to multiple muxes _is_ possible, but
  27:../libDaisy/src/per/adc.h ****  *           each channel sharing data lines must be set to the maximum
  28:../libDaisy/src/per/adc.h ****  *           number of channels, even if some multiplexers have fewer
  29:../libDaisy/src/per/adc.h ****  *           inputs connected.
  30:../libDaisy/src/per/adc.h **** */
  31:../libDaisy/src/per/adc.h **** struct AdcChannelConfig
  32:../libDaisy/src/per/adc.h **** {
  33:../libDaisy/src/per/adc.h ****     /** Which pin to use for multiplexing */
  34:../libDaisy/src/per/adc.h ****     enum MuxPin
  35:../libDaisy/src/per/adc.h ****     {
  36:../libDaisy/src/per/adc.h ****         MUX_SEL_0,    /**< & */
  37:../libDaisy/src/per/adc.h ****         MUX_SEL_1,    /**< & */
  38:../libDaisy/src/per/adc.h ****         MUX_SEL_2,    /**< & */
  39:../libDaisy/src/per/adc.h ****         MUX_SEL_LAST, /**< & */
  40:../libDaisy/src/per/adc.h ****     };
  41:../libDaisy/src/per/adc.h **** 
  42:../libDaisy/src/per/adc.h ****     /** \brief per channel conversion speed added to fixed time based on bitdepth, etc. */
  43:../libDaisy/src/per/adc.h ****     enum ConversionSpeed
  44:../libDaisy/src/per/adc.h ****     {
  45:../libDaisy/src/per/adc.h ****         SPEED_1CYCLES_5,
  46:../libDaisy/src/per/adc.h ****         SPEED_2CYCLES_5,
  47:../libDaisy/src/per/adc.h ****         SPEED_8CYCLES_5,
  48:../libDaisy/src/per/adc.h ****         SPEED_16CYCLES_5,
  49:../libDaisy/src/per/adc.h ****         SPEED_32CYCLES_5,
  50:../libDaisy/src/per/adc.h ****         SPEED_64CYCLES_5,
  51:../libDaisy/src/per/adc.h ****         SPEED_387CYCLES_5,
  52:../libDaisy/src/per/adc.h ****         SPEED_810CYCLES_5,
  53:../libDaisy/src/per/adc.h ****     };
  54:../libDaisy/src/per/adc.h **** 
  55:../libDaisy/src/per/adc.h ****     /** Initializes a single ADC pin as an ADC. 
  56:../libDaisy/src/per/adc.h ****     \param pin Pin to init.
  57:../libDaisy/src/per/adc.h ****     \param speed conversion speed for this pin defaults to 8.5 cycles
  58:../libDaisy/src/per/adc.h ****      */
  59:../libDaisy/src/per/adc.h ****     void InitSingle(Pin pin, ConversionSpeed speed = SPEED_8CYCLES_5);
  60:../libDaisy/src/per/adc.h **** 
  61:../libDaisy/src/per/adc.h ****     /** 
  62:../libDaisy/src/per/adc.h ****     Initializes a single ADC pin as a Multiplexed ADC.
  63:../libDaisy/src/per/adc.h ****     Requires a CD405X Multiplexer connected to the pin.
  64:../libDaisy/src/per/adc.h ****     You only need to supply the mux pins that are required,
  65:../libDaisy/src/per/adc.h ****     e.g. a 4052 mux would only require mux_0 and mux_1.
  66:../libDaisy/src/per/adc.h ****     Internal Callbacks handle the pin addressing.
  67:../libDaisy/src/per/adc.h ****     \param adc_pin &
  68:../libDaisy/src/per/adc.h ****     \param mux_channels must be 1-8
  69:../libDaisy/src/per/adc.h ****     \param mux_0 First mux pin
  70:../libDaisy/src/per/adc.h ****     \param mux_1 Second mux pin
  71:../libDaisy/src/per/adc.h ****     \param mux_2 Third mux pin
  72:../libDaisy/src/per/adc.h ****     \param speed conversion speed for this pin defaults to 8.5 cycles
  73:../libDaisy/src/per/adc.h ****     */
  74:../libDaisy/src/per/adc.h ****     void InitMux(Pin             adc_pin,
  75:../libDaisy/src/per/adc.h ****                  size_t          mux_channels,
  76:../libDaisy/src/per/adc.h ****                  Pin             mux_0,
  77:../libDaisy/src/per/adc.h ****                  Pin             mux_1 = Pin(PORTX, 0),
  78:../libDaisy/src/per/adc.h ****                  Pin             mux_2 = Pin(PORTX, 0),
  79:../libDaisy/src/per/adc.h ****                  ConversionSpeed speed = SPEED_8CYCLES_5);
  80:../libDaisy/src/per/adc.h **** 
  81:../libDaisy/src/per/adc.h ****     GPIO            pin_;                   /**< & */
ARM GAS  /var/folders/v1/156fk8j97zv9pzndh61fy7zm0000gn/T//cc9ANSfA.s 			page 9


  82:../libDaisy/src/per/adc.h ****     GPIO            mux_pin_[MUX_SEL_LAST]; /**< & */
  83:../libDaisy/src/per/adc.h ****     uint8_t         mux_channels_;          /**< & */
  84:../libDaisy/src/per/adc.h ****     ConversionSpeed speed_;
  85:../libDaisy/src/per/adc.h **** };
  86:../libDaisy/src/per/adc.h **** 
  87:../libDaisy/src/per/adc.h **** /**
  88:../libDaisy/src/per/adc.h ****    @brief Handler for analog to digital conversion
  89:../libDaisy/src/per/adc.h **** */
  90:../libDaisy/src/per/adc.h **** class AdcHandle
  91:../libDaisy/src/per/adc.h **** {
  92:../libDaisy/src/per/adc.h ****   public:
  93:../libDaisy/src/per/adc.h ****     /** Supported oversampling amounts */
  94:../libDaisy/src/per/adc.h ****     enum OverSampling
  95:../libDaisy/src/per/adc.h ****     {
  96:../libDaisy/src/per/adc.h ****         OVS_NONE, /**< & */
  97:../libDaisy/src/per/adc.h ****         OVS_4,    /**< & */
  98:../libDaisy/src/per/adc.h ****         OVS_8,    /**< & */
  99:../libDaisy/src/per/adc.h ****         OVS_16,   /**< & */
 100:../libDaisy/src/per/adc.h ****         OVS_32,   /**< & */
 101:../libDaisy/src/per/adc.h ****         OVS_64,   /**< & */
 102:../libDaisy/src/per/adc.h ****         OVS_128,  /**< & */
 103:../libDaisy/src/per/adc.h ****         OVS_256,  /**< & */
 104:../libDaisy/src/per/adc.h ****         OVS_512,  /**< & */
 105:../libDaisy/src/per/adc.h ****         OVS_1024, /**< & */
 106:../libDaisy/src/per/adc.h ****         OVS_LAST, /**< & */
 107:../libDaisy/src/per/adc.h ****     };
 108:../libDaisy/src/per/adc.h **** 
 109:../libDaisy/src/per/adc.h ****     AdcHandle() {}
 110:../libDaisy/src/per/adc.h ****     ~AdcHandle() {}
  79              		.loc 10 110 5 is_stmt 1 view .LVU13
  80              		.loc 10 110 5 is_stmt 0 view .LVU14
  81              	.LBE921:
  82              	.LBB922:
  83              	.LBI922:
  84              		.file 11 "../libDaisy/src/hid/audio.h"
   1:../libDaisy/src/hid/audio.h **** #ifndef DSY_AUDIO_H
   2:../libDaisy/src/hid/audio.h **** #define DSY_AUDIO_H /**< & */
   3:../libDaisy/src/hid/audio.h **** 
   4:../libDaisy/src/hid/audio.h **** #include "per/sai.h"
   5:../libDaisy/src/hid/audio.h **** 
   6:../libDaisy/src/hid/audio.h **** namespace daisy
   7:../libDaisy/src/hid/audio.h **** {
   8:../libDaisy/src/hid/audio.h **** /** @brief Audio Engine Handle
   9:../libDaisy/src/hid/audio.h ****  *  @ingroup audio 
  10:../libDaisy/src/hid/audio.h ****  *  @details This class allows for higher level access to an audio engine.
  11:../libDaisy/src/hid/audio.h ****  *           If you're using a SOM like the DaisySeed or DaisyPatchSM (or any 
  12:../libDaisy/src/hid/audio.h ****  *            board that includes one of those objects) then the intialization
  13:../libDaisy/src/hid/audio.h ****  *            is already taken  care of.
  14:../libDaisy/src/hid/audio.h ****  *           If you're setting up your own custom hardware, or need to make changes
  15:../libDaisy/src/hid/audio.h ****  *           you will have to take the following steps:
  16:../libDaisy/src/hid/audio.h ****  *             1. Create and Initialize an SaiHandle or two depending on your requirements
  17:../libDaisy/src/hid/audio.h ****  *             2. Initialize the Audio Handle with the desired settings and the Initialized SaiHand
  18:../libDaisy/src/hid/audio.h ****  *             3. If the connected codec requires special configuration or initialization, do so
  19:../libDaisy/src/hid/audio.h ****  *             4. Write a callback method using either the AudioCallback or the InterleavingAudioCa
  20:../libDaisy/src/hid/audio.h ****  *             5. Start the Audio using one of the StartAudio function
  21:../libDaisy/src/hid/audio.h ****  */
  22:../libDaisy/src/hid/audio.h **** class AudioHandle
ARM GAS  /var/folders/v1/156fk8j97zv9pzndh61fy7zm0000gn/T//cc9ANSfA.s 			page 10


  23:../libDaisy/src/hid/audio.h **** {
  24:../libDaisy/src/hid/audio.h ****   public:
  25:../libDaisy/src/hid/audio.h ****     /** Manually configurable details about the Audio Engine */
  26:../libDaisy/src/hid/audio.h ****     /** TODO: Figure out how to get samplerate in here. */
  27:../libDaisy/src/hid/audio.h ****     struct Config
  28:../libDaisy/src/hid/audio.h ****     {
  29:../libDaisy/src/hid/audio.h ****         /** number of samples to process per callback */
  30:../libDaisy/src/hid/audio.h ****         size_t blocksize = 48;
  31:../libDaisy/src/hid/audio.h **** 
  32:../libDaisy/src/hid/audio.h ****         /**< Sample rate of audio */
  33:../libDaisy/src/hid/audio.h ****         SaiHandle::Config::SampleRate samplerate
  34:../libDaisy/src/hid/audio.h ****             = SaiHandle::Config::SampleRate::SAI_48KHZ;
  35:../libDaisy/src/hid/audio.h **** 
  36:../libDaisy/src/hid/audio.h ****         /** factor for adjustment before and after callback for hardware that may have extra headro
  37:../libDaisy/src/hid/audio.h ****         float postgain = 1.f;
  38:../libDaisy/src/hid/audio.h **** 
  39:../libDaisy/src/hid/audio.h ****         /** factor for additional one-sided compensation to audio path for hardware that may
  40:../libDaisy/src/hid/audio.h ****          *  have unequal input/output ranges
  41:../libDaisy/src/hid/audio.h ****          */
  42:../libDaisy/src/hid/audio.h ****         float output_compensation = 1.f;
  43:../libDaisy/src/hid/audio.h ****     };
  44:../libDaisy/src/hid/audio.h **** 
  45:../libDaisy/src/hid/audio.h ****     enum class Result
  46:../libDaisy/src/hid/audio.h ****     {
  47:../libDaisy/src/hid/audio.h ****         OK,
  48:../libDaisy/src/hid/audio.h ****         ERR,
  49:../libDaisy/src/hid/audio.h ****     };
  50:../libDaisy/src/hid/audio.h **** 
  51:../libDaisy/src/hid/audio.h ****     /** Non-Interleaving input buffer
  52:../libDaisy/src/hid/audio.h ****      * Buffer arranged by float[chn][sample] 
  53:../libDaisy/src/hid/audio.h ****      * const so that the user can't modify the input
  54:../libDaisy/src/hid/audio.h ****      */
  55:../libDaisy/src/hid/audio.h ****     typedef const float* const* InputBuffer;
  56:../libDaisy/src/hid/audio.h **** 
  57:../libDaisy/src/hid/audio.h ****     /** Non-Interleaving output buffer
  58:../libDaisy/src/hid/audio.h ****      * Arranged by float[chn][sample] 
  59:../libDaisy/src/hid/audio.h ****      */
  60:../libDaisy/src/hid/audio.h ****     typedef float** OutputBuffer;
  61:../libDaisy/src/hid/audio.h **** 
  62:../libDaisy/src/hid/audio.h ****     /** Type for a Non-Interleaving audio callback 
  63:../libDaisy/src/hid/audio.h ****      * Non-Interleaving audio callbacks in daisy will be of this type
  64:../libDaisy/src/hid/audio.h ****      */
  65:../libDaisy/src/hid/audio.h ****     typedef void (*AudioCallback)(InputBuffer  in,
  66:../libDaisy/src/hid/audio.h ****                                   OutputBuffer out,
  67:../libDaisy/src/hid/audio.h ****                                   size_t       size);
  68:../libDaisy/src/hid/audio.h **** 
  69:../libDaisy/src/hid/audio.h ****     /** Interleaving Input buffer
  70:../libDaisy/src/hid/audio.h ****      ** audio is prepared as { L0, R0, L1, R1, . . . LN, RN }]
  71:../libDaisy/src/hid/audio.h ****      ** this is const, as the user shouldn't modify it
  72:../libDaisy/src/hid/audio.h ****     */
  73:../libDaisy/src/hid/audio.h ****     typedef const float* InterleavingInputBuffer;
  74:../libDaisy/src/hid/audio.h **** 
  75:../libDaisy/src/hid/audio.h ****     /** Interleaving Output buffer 
  76:../libDaisy/src/hid/audio.h ****      ** audio is prepared as { L0, R0, L1, R1, . . . LN, RN }
  77:../libDaisy/src/hid/audio.h ****     */
  78:../libDaisy/src/hid/audio.h ****     typedef float* InterleavingOutputBuffer;
  79:../libDaisy/src/hid/audio.h **** 
ARM GAS  /var/folders/v1/156fk8j97zv9pzndh61fy7zm0000gn/T//cc9ANSfA.s 			page 11


  80:../libDaisy/src/hid/audio.h ****     /** Interleaving Audio Callback 
  81:../libDaisy/src/hid/audio.h ****      * Interleaving audio callbacks in daisy must be of this type
  82:../libDaisy/src/hid/audio.h ****      */
  83:../libDaisy/src/hid/audio.h ****     typedef void (*InterleavingAudioCallback)(InterleavingInputBuffer  in,
  84:../libDaisy/src/hid/audio.h ****                                               InterleavingOutputBuffer out,
  85:../libDaisy/src/hid/audio.h ****                                               size_t                   size);
  86:../libDaisy/src/hid/audio.h **** 
  87:../libDaisy/src/hid/audio.h ****     AudioHandle() : pimpl_(nullptr) {}
  88:../libDaisy/src/hid/audio.h ****     ~AudioHandle() {}
  85              		.loc 11 88 5 is_stmt 1 view .LVU15
  86              		.loc 11 88 5 is_stmt 0 view .LVU16
  87              	.LBE922:
  88              	.LBE917:
  89              	.LBE913:
  90              		.loc 2 40 20 view .LVU17
  91 0000 7047     		bx	lr
  92              		.cfi_endproc
  93              	.LFE2546:
  95              		.weak	_ZN5daisy10DaisyLegioD1Ev
  96              		.thumb_set _ZN5daisy10DaisyLegioD1Ev,_ZN5daisy10DaisyLegioD2Ev
  97 0002 00BF     		.section	.text._ZN7daisysp7LimiterD2Ev,"axG",%progbits,_ZN7daisysp7LimiterD5Ev,comdat
  98              		.align	1
  99              		.p2align 2,,3
 100              		.weak	_ZN7daisysp7LimiterD2Ev
 101              		.syntax unified
 102              		.thumb
 103              		.thumb_func
 105              	_ZN7daisysp7LimiterD2Ev:
 106              	.LVL1:
 107              	.LFB4569:
 108              		.file 12 "../DaisySP/Source/Dynamics/limiter.h"
   1:../DaisySP/Source/Dynamics/limiter.h **** /*
   2:../DaisySP/Source/Dynamics/limiter.h **** Copyright (c) 2020 Electrosmith, Corp, Emilie Gillet
   3:../DaisySP/Source/Dynamics/limiter.h **** 
   4:../DaisySP/Source/Dynamics/limiter.h **** Use of this source code is governed by an MIT-style
   5:../DaisySP/Source/Dynamics/limiter.h **** license that can be found in the LICENSE file or at
   6:../DaisySP/Source/Dynamics/limiter.h **** https://opensource.org/licenses/MIT.
   7:../DaisySP/Source/Dynamics/limiter.h **** */
   8:../DaisySP/Source/Dynamics/limiter.h **** 
   9:../DaisySP/Source/Dynamics/limiter.h **** #pragma once
  10:../DaisySP/Source/Dynamics/limiter.h **** #ifndef LIMITER_H
  11:../DaisySP/Source/Dynamics/limiter.h **** #define LIMITER_H
  12:../DaisySP/Source/Dynamics/limiter.h **** #include <stdlib.h>
  13:../DaisySP/Source/Dynamics/limiter.h **** namespace daisysp
  14:../DaisySP/Source/Dynamics/limiter.h **** {
  15:../DaisySP/Source/Dynamics/limiter.h **** /** Simple Peak Limiter
  16:../DaisySP/Source/Dynamics/limiter.h **** 
  17:../DaisySP/Source/Dynamics/limiter.h **** This was extracted from pichenettes/stmlib.
  18:../DaisySP/Source/Dynamics/limiter.h **** 
  19:../DaisySP/Source/Dynamics/limiter.h **** Credit to pichenettes/Mutable Instruments
  20:../DaisySP/Source/Dynamics/limiter.h **** */
  21:../DaisySP/Source/Dynamics/limiter.h **** class Limiter
  22:../DaisySP/Source/Dynamics/limiter.h **** {
  23:../DaisySP/Source/Dynamics/limiter.h ****   public:
  24:../DaisySP/Source/Dynamics/limiter.h ****     Limiter() {}
  25:../DaisySP/Source/Dynamics/limiter.h ****     ~Limiter() {}
 109              		.loc 12 25 5 is_stmt 1 view -0
ARM GAS  /var/folders/v1/156fk8j97zv9pzndh61fy7zm0000gn/T//cc9ANSfA.s 			page 12


 110              		.cfi_startproc
 111              		@ args = 0, pretend = 0, frame = 0
 112              		@ frame_needed = 0, uses_anonymous_args = 0
 113              		@ link register save eliminated.
 114              		.loc 12 25 17 is_stmt 0 view .LVU19
 115 0000 7047     		bx	lr
 116              		.cfi_endproc
 117              	.LFE4569:
 119              		.weak	_ZN7daisysp7LimiterD1Ev
 120              		.thumb_set _ZN7daisysp7LimiterD1Ev,_ZN7daisysp7LimiterD2Ev
 121 0002 00BF     		.section	.text._ZN15ModeFilterDriveD2Ev,"axG",%progbits,_ZN15ModeFilterDriveD5Ev,comdat
 122              		.align	1
 123              		.p2align 2,,3
 124              		.weak	_ZN15ModeFilterDriveD2Ev
 125              		.syntax unified
 126              		.thumb
 127              		.thumb_func
 129              	_ZN15ModeFilterDriveD2Ev:
 130              	.LVL2:
 131              	.LFB5784:
 132              		.file 13 "ModeFilterDrive.h"
   1:ModeFilterDrive.h **** #pragma once
   2:ModeFilterDrive.h **** #include "daisy_legio.h"
   3:ModeFilterDrive.h **** #include "daisysp.h"
   4:ModeFilterDrive.h **** #include <math.h>
   5:ModeFilterDrive.h **** 
   6:ModeFilterDrive.h **** using namespace daisy;
   7:ModeFilterDrive.h **** using namespace daisysp;
   8:ModeFilterDrive.h **** 
   9:ModeFilterDrive.h **** class ModeFilterDrive {
 133              		.loc 13 9 7 is_stmt 1 view -0
 134              		.cfi_startproc
 135              		@ args = 0, pretend = 0, frame = 0
 136              		@ frame_needed = 0, uses_anonymous_args = 0
 137              		@ link register save eliminated.
 138              	.LBB923:
 139              	.LBB924:
 140              	.LBI924:
 141              		.file 14 "../DaisySP/Source/Filters/svf.h"
   1:../DaisySP/Source/Filters/svf.h **** /*
   2:../DaisySP/Source/Filters/svf.h **** Copyright (c) 2020 Electrosmith, Corp
   3:../DaisySP/Source/Filters/svf.h **** 
   4:../DaisySP/Source/Filters/svf.h **** Use of this source code is governed by an MIT-style
   5:../DaisySP/Source/Filters/svf.h **** license that can be found in the LICENSE file or at
   6:../DaisySP/Source/Filters/svf.h **** https://opensource.org/licenses/MIT.
   7:../DaisySP/Source/Filters/svf.h **** */
   8:../DaisySP/Source/Filters/svf.h **** 
   9:../DaisySP/Source/Filters/svf.h **** #pragma once
  10:../DaisySP/Source/Filters/svf.h **** #ifndef DSY_SVF_H
  11:../DaisySP/Source/Filters/svf.h **** #define DSY_SVF_H
  12:../DaisySP/Source/Filters/svf.h **** 
  13:../DaisySP/Source/Filters/svf.h **** namespace daisysp
  14:../DaisySP/Source/Filters/svf.h **** {
  15:../DaisySP/Source/Filters/svf.h **** /**      Double Sampled, Stable State Variable Filter
  16:../DaisySP/Source/Filters/svf.h **** 
  17:../DaisySP/Source/Filters/svf.h **** Credit to Andrew Simper from musicdsp.org
  18:../DaisySP/Source/Filters/svf.h **** 
ARM GAS  /var/folders/v1/156fk8j97zv9pzndh61fy7zm0000gn/T//cc9ANSfA.s 			page 13


  19:../DaisySP/Source/Filters/svf.h **** This is his "State Variable Filter (Double Sampled, Stable)"
  20:../DaisySP/Source/Filters/svf.h **** 
  21:../DaisySP/Source/Filters/svf.h **** Additional thanks to Laurent de Soras for stability limit, and 
  22:../DaisySP/Source/Filters/svf.h **** Stefan Diedrichsen for the correct notch output
  23:../DaisySP/Source/Filters/svf.h **** 
  24:../DaisySP/Source/Filters/svf.h **** Ported by: Stephen Hensley
  25:../DaisySP/Source/Filters/svf.h **** */
  26:../DaisySP/Source/Filters/svf.h **** class Svf
  27:../DaisySP/Source/Filters/svf.h **** {
  28:../DaisySP/Source/Filters/svf.h ****   public:
  29:../DaisySP/Source/Filters/svf.h ****     Svf() {}
  30:../DaisySP/Source/Filters/svf.h ****     ~Svf() {}
 142              		.loc 14 30 5 view .LVU21
 143              		.loc 14 30 5 is_stmt 0 view .LVU22
 144              	.LBE924:
 145              	.LBB925:
 146              	.LBI925:
 147              		.loc 14 30 5 is_stmt 1 view .LVU23
 148              		.loc 14 30 5 is_stmt 0 view .LVU24
 149              	.LBE925:
 150              	.LBB926:
 151              	.LBI926:
 152              		.loc 14 30 5 is_stmt 1 view .LVU25
 153              		.loc 14 30 5 is_stmt 0 view .LVU26
 154              	.LBE926:
 155              	.LBB927:
 156              	.LBI927:
 157              		.loc 14 30 5 is_stmt 1 view .LVU27
 158              		.loc 14 30 5 is_stmt 0 view .LVU28
 159              	.LBE927:
 160              	.LBB928:
 161              	.LBI928:
 162              		.loc 14 30 5 is_stmt 1 view .LVU29
 163              		.loc 14 30 5 is_stmt 0 view .LVU30
 164              	.LBE928:
 165              	.LBB929:
 166              	.LBI929:
 167              		.loc 14 30 5 is_stmt 1 view .LVU31
 168              		.loc 14 30 5 is_stmt 0 view .LVU32
 169              	.LBE929:
 170              	.LBB930:
 171              	.LBI930:
 172              		.loc 14 30 5 is_stmt 1 view .LVU33
 173              		.loc 14 30 5 is_stmt 0 view .LVU34
 174              	.LBE930:
 175              	.LBB931:
 176              	.LBI931:
 177              		.loc 14 30 5 is_stmt 1 view .LVU35
 178              		.loc 14 30 5 is_stmt 0 view .LVU36
 179              	.LBE931:
 180              	.LBE923:
 181              		.loc 13 9 7 view .LVU37
 182 0000 7047     		bx	lr
 183              		.cfi_endproc
 184              	.LFE5784:
 186              		.weak	_ZN15ModeFilterDriveD1Ev
 187              		.thumb_set _ZN15ModeFilterDriveD1Ev,_ZN15ModeFilterDriveD2Ev
ARM GAS  /var/folders/v1/156fk8j97zv9pzndh61fy7zm0000gn/T//cc9ANSfA.s 			page 14


 188 0002 00BF     		.section	.text._ZN7daisysp12PitchShifter7ProcessERf,"axG",%progbits,_ZN7daisysp12PitchShifter7Proc
 189              		.align	1
 190              		.p2align 2,,3
 191              		.weak	_ZN7daisysp12PitchShifter7ProcessERf
 192              		.syntax unified
 193              		.thumb
 194              		.thumb_func
 196              	_ZN7daisysp12PitchShifter7ProcessERf:
 197              	.LVL3:
 198              	.LFB4632:
 199              		.file 15 "../DaisySP/Source/Effects/pitchshifter.h"
   1:../DaisySP/Source/Effects/pitchshifter.h **** /*
   2:../DaisySP/Source/Effects/pitchshifter.h **** Copyright (c) 2020 Electrosmith, Corp
   3:../DaisySP/Source/Effects/pitchshifter.h **** 
   4:../DaisySP/Source/Effects/pitchshifter.h **** Use of this source code is governed by an MIT-style
   5:../DaisySP/Source/Effects/pitchshifter.h **** license that can be found in the LICENSE file or at
   6:../DaisySP/Source/Effects/pitchshifter.h **** https://opensource.org/licenses/MIT.
   7:../DaisySP/Source/Effects/pitchshifter.h **** */
   8:../DaisySP/Source/Effects/pitchshifter.h **** 
   9:../DaisySP/Source/Effects/pitchshifter.h **** #pragma once
  10:../DaisySP/Source/Effects/pitchshifter.h **** #ifndef DSY_PITCHSHIFTER_H
  11:../DaisySP/Source/Effects/pitchshifter.h **** #define DSY_PITCHSHIFTER_H
  12:../DaisySP/Source/Effects/pitchshifter.h **** #include <stdint.h>
  13:../DaisySP/Source/Effects/pitchshifter.h **** #include <cmath>
  14:../DaisySP/Source/Effects/pitchshifter.h **** #ifdef USE_ARM_DSP
  15:../DaisySP/Source/Effects/pitchshifter.h **** #include "arm_math.h"
  16:../DaisySP/Source/Effects/pitchshifter.h **** #endif
  17:../DaisySP/Source/Effects/pitchshifter.h **** #include "Utility/dsp.h"
  18:../DaisySP/Source/Effects/pitchshifter.h **** #include "Utility/delayline.h"
  19:../DaisySP/Source/Effects/pitchshifter.h **** #include "Control/phasor.h"
  20:../DaisySP/Source/Effects/pitchshifter.h **** 
  21:../DaisySP/Source/Effects/pitchshifter.h **** /** Shift can be 30-100 ms lets just start with 50 for now.
  22:../DaisySP/Source/Effects/pitchshifter.h **** 0.050 * SR = 2400 samples (at 48kHz)
  23:../DaisySP/Source/Effects/pitchshifter.h **** */
  24:../DaisySP/Source/Effects/pitchshifter.h **** #define SHIFT_BUFFER_SIZE 16384
  25:../DaisySP/Source/Effects/pitchshifter.h **** //#define SHIFT_BUFFER_SIZE 4800
  26:../DaisySP/Source/Effects/pitchshifter.h **** //#define SHIFT_BUFFER_SIZE 8192
  27:../DaisySP/Source/Effects/pitchshifter.h **** //#define SHIFT_BUFFER_SIZE 1024
  28:../DaisySP/Source/Effects/pitchshifter.h **** 
  29:../DaisySP/Source/Effects/pitchshifter.h **** namespace daisysp
  30:../DaisySP/Source/Effects/pitchshifter.h **** {
  31:../DaisySP/Source/Effects/pitchshifter.h **** static inline uint32_t hash_xs32(uint32_t x)
  32:../DaisySP/Source/Effects/pitchshifter.h **** {
  33:../DaisySP/Source/Effects/pitchshifter.h ****     x ^= x << 13;
  34:../DaisySP/Source/Effects/pitchshifter.h ****     x ^= x >> 17;
  35:../DaisySP/Source/Effects/pitchshifter.h ****     x ^= x << 5;
  36:../DaisySP/Source/Effects/pitchshifter.h ****     return x;
  37:../DaisySP/Source/Effects/pitchshifter.h **** }
  38:../DaisySP/Source/Effects/pitchshifter.h **** 
  39:../DaisySP/Source/Effects/pitchshifter.h **** inline uint32_t myrand()
  40:../DaisySP/Source/Effects/pitchshifter.h **** {
  41:../DaisySP/Source/Effects/pitchshifter.h ****     static uint32_t seed = 1;
  42:../DaisySP/Source/Effects/pitchshifter.h ****     seed                 = hash_xs32(seed);
  43:../DaisySP/Source/Effects/pitchshifter.h ****     return seed;
  44:../DaisySP/Source/Effects/pitchshifter.h **** }
  45:../DaisySP/Source/Effects/pitchshifter.h **** 
  46:../DaisySP/Source/Effects/pitchshifter.h **** /**  time-domain pitchshifter
ARM GAS  /var/folders/v1/156fk8j97zv9pzndh61fy7zm0000gn/T//cc9ANSfA.s 			page 15


  47:../DaisySP/Source/Effects/pitchshifter.h **** 
  48:../DaisySP/Source/Effects/pitchshifter.h **** Author: shensley
  49:../DaisySP/Source/Effects/pitchshifter.h **** 
  50:../DaisySP/Source/Effects/pitchshifter.h **** Based on "Pitch Shifting" from ucsd.edu 
  51:../DaisySP/Source/Effects/pitchshifter.h **** 
  52:../DaisySP/Source/Effects/pitchshifter.h **** t = 1 - ((s *f) / R)
  53:../DaisySP/Source/Effects/pitchshifter.h **** 
  54:../DaisySP/Source/Effects/pitchshifter.h **** where:
  55:../DaisySP/Source/Effects/pitchshifter.h ****     s is the size of the delay
  56:../DaisySP/Source/Effects/pitchshifter.h ****     f is the frequency of the lfo
  57:../DaisySP/Source/Effects/pitchshifter.h ****     r is the sample_rate
  58:../DaisySP/Source/Effects/pitchshifter.h **** 
  59:../DaisySP/Source/Effects/pitchshifter.h **** solving for t = 12.0
  60:../DaisySP/Source/Effects/pitchshifter.h **** f = (12 - 1) * 48000 / SHIFT_BUFFER_SIZE;
  61:../DaisySP/Source/Effects/pitchshifter.h **** 
  62:../DaisySP/Source/Effects/pitchshifter.h **** \todo - move hash_xs32 and myrand to dsp.h and give appropriate names
  63:../DaisySP/Source/Effects/pitchshifter.h **** */
  64:../DaisySP/Source/Effects/pitchshifter.h **** class PitchShifter
  65:../DaisySP/Source/Effects/pitchshifter.h **** {
  66:../DaisySP/Source/Effects/pitchshifter.h ****   public:
  67:../DaisySP/Source/Effects/pitchshifter.h ****     PitchShifter() {}
  68:../DaisySP/Source/Effects/pitchshifter.h ****     ~PitchShifter() {}
  69:../DaisySP/Source/Effects/pitchshifter.h ****     /** Initialize pitch shifter
  70:../DaisySP/Source/Effects/pitchshifter.h ****     */
  71:../DaisySP/Source/Effects/pitchshifter.h ****     void Init(float sr)
  72:../DaisySP/Source/Effects/pitchshifter.h ****     {
  73:../DaisySP/Source/Effects/pitchshifter.h ****         force_recalc_ = false;
  74:../DaisySP/Source/Effects/pitchshifter.h ****         sr_           = sr;
  75:../DaisySP/Source/Effects/pitchshifter.h ****         mod_freq_     = 5.0f;
  76:../DaisySP/Source/Effects/pitchshifter.h ****         SetSemitones();
  77:../DaisySP/Source/Effects/pitchshifter.h ****         for(uint8_t i = 0; i < 2; i++)
  78:../DaisySP/Source/Effects/pitchshifter.h ****         {
  79:../DaisySP/Source/Effects/pitchshifter.h ****             gain_[i] = 0.0f;
  80:../DaisySP/Source/Effects/pitchshifter.h ****             d_[i].Init();
  81:../DaisySP/Source/Effects/pitchshifter.h ****             phs_[i].Init(sr, 50, i == 0 ? 0 : PI_F);
  82:../DaisySP/Source/Effects/pitchshifter.h ****         }
  83:../DaisySP/Source/Effects/pitchshifter.h ****         shift_up_ = true;
  84:../DaisySP/Source/Effects/pitchshifter.h ****         del_size_ = SHIFT_BUFFER_SIZE;
  85:../DaisySP/Source/Effects/pitchshifter.h ****         SetDelSize(del_size_);
  86:../DaisySP/Source/Effects/pitchshifter.h ****         fun_ = 0.0f;
  87:../DaisySP/Source/Effects/pitchshifter.h ****     }
  88:../DaisySP/Source/Effects/pitchshifter.h **** 
  89:../DaisySP/Source/Effects/pitchshifter.h ****     /** process pitch shifter
  90:../DaisySP/Source/Effects/pitchshifter.h ****     */
  91:../DaisySP/Source/Effects/pitchshifter.h ****     float Process(float &in)
 200              		.loc 15 91 11 is_stmt 1 view -0
 201              		.cfi_startproc
 202              		@ args = 0, pretend = 0, frame = 0
 203              		@ frame_needed = 0, uses_anonymous_args = 0
  92:../DaisySP/Source/Effects/pitchshifter.h ****     {
  93:../DaisySP/Source/Effects/pitchshifter.h ****         float val, fade1, fade2;
 204              		.loc 15 93 9 view .LVU39
  94:../DaisySP/Source/Effects/pitchshifter.h ****         // First Process delay mod/crossfade
  95:../DaisySP/Source/Effects/pitchshifter.h ****         fade1 = phs_[0].Process();
 205              		.loc 15 95 9 view .LVU40
  91:../DaisySP/Source/Effects/pitchshifter.h ****     {
 206              		.loc 15 91 11 is_stmt 0 view .LVU41
ARM GAS  /var/folders/v1/156fk8j97zv9pzndh61fy7zm0000gn/T//cc9ANSfA.s 			page 16


 207 0000 F8B5     		push	{r3, r4, r5, r6, r7, lr}
 208              		.cfi_def_cfa_offset 24
 209              		.cfi_offset 3, -24
 210              		.cfi_offset 4, -20
 211              		.cfi_offset 5, -16
 212              		.cfi_offset 6, -12
 213              		.cfi_offset 7, -8
 214              		.cfi_offset 14, -4
 215 0002 0546     		mov	r5, r0
 216              		.loc 15 95 32 view .LVU42
 217 0004 A748     		ldr	r0, .L15
 218              	.LVL4:
  91:../DaisySP/Source/Effects/pitchshifter.h ****     {
 219              		.loc 15 91 11 view .LVU43
 220 0006 0E46     		mov	r6, r1
 221              		.loc 15 95 32 view .LVU44
 222 0008 2844     		add	r0, r0, r5
  96:../DaisySP/Source/Effects/pitchshifter.h ****         fade2 = phs_[1].Process();
  97:../DaisySP/Source/Effects/pitchshifter.h ****         if(prev_phs_a_ > fade1)
  98:../DaisySP/Source/Effects/pitchshifter.h ****         {
  99:../DaisySP/Source/Effects/pitchshifter.h ****             mod_a_amt_ = fun_ * ((float)(myrand() % 255) / 255.0f)
 100:../DaisySP/Source/Effects/pitchshifter.h ****                          * (del_size_ * 0.5f);
 223              		.loc 15 100 29 view .LVU45
 224 000a 05F50034 		add	r4, r5, #131072
  91:../DaisySP/Source/Effects/pitchshifter.h ****     {
 225              		.loc 15 91 11 view .LVU46
 226 000e 2DED088B 		vpush.64	{d8, d9, d10, d11}
 227              		.cfi_def_cfa_offset 56
 228              		.cfi_offset 80, -56
 229              		.cfi_offset 81, -52
 230              		.cfi_offset 82, -48
 231              		.cfi_offset 83, -44
 232              		.cfi_offset 84, -40
 233              		.cfi_offset 85, -36
 234              		.cfi_offset 86, -32
 235              		.cfi_offset 87, -28
  95:../DaisySP/Source/Effects/pitchshifter.h ****         fade2 = phs_[1].Process();
 236              		.loc 15 95 32 view .LVU47
 237 0012 FFF7FEFF 		bl	_ZN7daisysp6Phasor7ProcessEv
 238              	.LVL5:
  96:../DaisySP/Source/Effects/pitchshifter.h ****         fade2 = phs_[1].Process();
 239              		.loc 15 96 32 view .LVU48
 240 0016 A448     		ldr	r0, .L15+4
  95:../DaisySP/Source/Effects/pitchshifter.h ****         fade2 = phs_[1].Process();
 241              		.loc 15 95 32 view .LVU49
 242 0018 F0EE409A 		vmov.f32	s19, s0
 243              	.LVL6:
  96:../DaisySP/Source/Effects/pitchshifter.h ****         fade2 = phs_[1].Process();
 244              		.loc 15 96 9 is_stmt 1 view .LVU50
  96:../DaisySP/Source/Effects/pitchshifter.h ****         fade2 = phs_[1].Process();
 245              		.loc 15 96 32 is_stmt 0 view .LVU51
 246 001c 2844     		add	r0, r0, r5
 247 001e FFF7FEFF 		bl	_ZN7daisysp6Phasor7ProcessEv
 248              	.LVL7:
  97:../DaisySP/Source/Effects/pitchshifter.h ****         {
 249              		.loc 15 97 9 view .LVU52
 250 0022 D4ED1C7A 		vldr.32	s15, [r4, #112]
ARM GAS  /var/folders/v1/156fk8j97zv9pzndh61fy7zm0000gn/T//cc9ANSfA.s 			page 17


  96:../DaisySP/Source/Effects/pitchshifter.h ****         fade2 = phs_[1].Process();
 251              		.loc 15 96 32 view .LVU53
 252 0026 F0EE40AA 		vmov.f32	s21, s0
 253              	.LVL8:
  97:../DaisySP/Source/Effects/pitchshifter.h ****         {
 254              		.loc 15 97 9 is_stmt 1 view .LVU54
 255              		.loc 15 100 29 is_stmt 0 view .LVU55
 256 002a 236A     		ldr	r3, [r4, #32]
  97:../DaisySP/Source/Effects/pitchshifter.h ****         {
 257              		.loc 15 97 9 view .LVU56
 258 002c F4EEE97A 		vcmpe.f32	s15, s19
 259 0030 F1EE10FA 		vmrs	APSR_nzcv, FPSCR
 260 0034 00F3F480 		bgt	.L6
 101:../DaisySP/Source/Effects/pitchshifter.h ****             mod_coeff_[0]
 102:../DaisySP/Source/Effects/pitchshifter.h ****                 = 0.0002f + (((float)(myrand() % 255) / 255.0f) * 0.001f);
 103:../DaisySP/Source/Effects/pitchshifter.h ****         }
 104:../DaisySP/Source/Effects/pitchshifter.h ****         if(prev_phs_b_ > fade2)
 105:../DaisySP/Source/Effects/pitchshifter.h ****         {
 106:../DaisySP/Source/Effects/pitchshifter.h ****             mod_b_amt_ = fun_ * ((float)(myrand() % 255) / 255.0f)
 107:../DaisySP/Source/Effects/pitchshifter.h ****                          * (del_size_ * 0.5f);
 108:../DaisySP/Source/Effects/pitchshifter.h ****             mod_coeff_[1]
 109:../DaisySP/Source/Effects/pitchshifter.h ****                 = 0.0002f + (((float)(myrand() % 255) / 255.0f) * 0.001f);
 110:../DaisySP/Source/Effects/pitchshifter.h ****         }
 111:../DaisySP/Source/Effects/pitchshifter.h ****         slewed_mod_[0] += mod_coeff_[0] * (mod_a_amt_ - slewed_mod_[0]);
 261              		.loc 15 111 39 view .LVU57
 262 0038 D4ED205A 		vldr.32	s11, [r4, #128]
 263              		.loc 15 111 44 view .LVU58
 264 003c 94ED1A7A 		vldr.32	s14, [r4, #104]
 265              	.L7:
 104:../DaisySP/Source/Effects/pitchshifter.h ****         {
 266              		.loc 15 104 9 is_stmt 1 view .LVU59
 267 0040 D4ED1D7A 		vldr.32	s15, [r4, #116]
 268 0044 F4EEEA7A 		vcmpe.f32	s15, s21
 269 0048 F1EE10FA 		vmrs	APSR_nzcv, FPSCR
 270 004c 00F3A580 		bgt	.L8
 112:../DaisySP/Source/Effects/pitchshifter.h ****         slewed_mod_[1] += mod_coeff_[1] * (mod_b_amt_ - slewed_mod_[1]);
 271              		.loc 15 112 39 is_stmt 0 view .LVU60
 272 0050 D4ED216A 		vldr.32	s13, [r4, #132]
 273              		.loc 15 112 44 view .LVU61
 274 0054 D4ED1B7A 		vldr.32	s15, [r4, #108]
 275              	.L9:
 111:../DaisySP/Source/Effects/pitchshifter.h ****         slewed_mod_[1] += mod_coeff_[1] * (mod_b_amt_ - slewed_mod_[1]);
 276              		.loc 15 111 9 is_stmt 1 view .LVU62
 111:../DaisySP/Source/Effects/pitchshifter.h ****         slewed_mod_[1] += mod_coeff_[1] * (mod_b_amt_ - slewed_mod_[1]);
 277              		.loc 15 111 22 is_stmt 0 view .LVU63
 278 0058 D4ED1E8A 		vldr.32	s17, [r4, #120]
 279              		.loc 15 112 22 view .LVU64
 280 005c 94ED1F8A 		vldr.32	s16, [r4, #124]
 111:../DaisySP/Source/Effects/pitchshifter.h ****         slewed_mod_[1] += mod_coeff_[1] * (mod_b_amt_ - slewed_mod_[1]);
 281              		.loc 15 111 55 view .LVU65
 282 0060 37EE687A 		vsub.f32	s14, s14, s17
 113:../DaisySP/Source/Effects/pitchshifter.h ****         prev_phs_a_ = fade1;
 114:../DaisySP/Source/Effects/pitchshifter.h ****         prev_phs_b_ = fade2;
 115:../DaisySP/Source/Effects/pitchshifter.h ****         if(shift_up_)
 283              		.loc 15 115 9 view .LVU66
 284 0064 94F82C20 		ldrb	r2, [r4, #44]	@ zero_extendqisi2
 112:../DaisySP/Source/Effects/pitchshifter.h ****         prev_phs_a_ = fade1;
ARM GAS  /var/folders/v1/156fk8j97zv9pzndh61fy7zm0000gn/T//cc9ANSfA.s 			page 18


 285              		.loc 15 112 55 view .LVU67
 286 0068 77EEC87A 		vsub.f32	s15, s15, s16
 113:../DaisySP/Source/Effects/pitchshifter.h ****         prev_phs_a_ = fade1;
 287              		.loc 15 113 21 view .LVU68
 288 006c C4ED1C9A 		vstr.32	s19, [r4, #112]
 114:../DaisySP/Source/Effects/pitchshifter.h ****         if(shift_up_)
 289              		.loc 15 114 21 view .LVU69
 290 0070 C4ED1DAA 		vstr.32	s21, [r4, #116]
 111:../DaisySP/Source/Effects/pitchshifter.h ****         slewed_mod_[1] += mod_coeff_[1] * (mod_b_amt_ - slewed_mod_[1]);
 291              		.loc 15 111 24 view .LVU70
 292 0074 E7EE258A 		vfma.f32	s17, s14, s11
 112:../DaisySP/Source/Effects/pitchshifter.h ****         prev_phs_a_ = fade1;
 293              		.loc 15 112 24 view .LVU71
 294 0078 A7EEA68A 		vfma.f32	s16, s15, s13
 111:../DaisySP/Source/Effects/pitchshifter.h ****         slewed_mod_[1] += mod_coeff_[1] * (mod_b_amt_ - slewed_mod_[1]);
 295              		.loc 15 111 24 view .LVU72
 296 007c C4ED1E8A 		vstr.32	s17, [r4, #120]
 112:../DaisySP/Source/Effects/pitchshifter.h ****         prev_phs_a_ = fade1;
 297              		.loc 15 112 9 is_stmt 1 view .LVU73
 112:../DaisySP/Source/Effects/pitchshifter.h ****         prev_phs_a_ = fade1;
 298              		.loc 15 112 24 is_stmt 0 view .LVU74
 299 0080 84ED1F8A 		vstr.32	s16, [r4, #124]
 113:../DaisySP/Source/Effects/pitchshifter.h ****         prev_phs_b_ = fade2;
 300              		.loc 15 113 9 is_stmt 1 view .LVU75
 114:../DaisySP/Source/Effects/pitchshifter.h ****         if(shift_up_)
 301              		.loc 15 114 9 view .LVU76
 302              		.loc 15 115 9 view .LVU77
 303 0084 2AB1     		cbz	r2, .L10
 116:../DaisySP/Source/Effects/pitchshifter.h ****         {
 117:../DaisySP/Source/Effects/pitchshifter.h ****             fade1 = 1.0f - fade1;
 304              		.loc 15 117 13 view .LVU78
 305              		.loc 15 117 19 is_stmt 0 view .LVU79
 306 0086 F7EE007A 		vmov.f32	s15, #1.0e+0
 307 008a 77EEE99A 		vsub.f32	s19, s15, s19
 308              	.LVL9:
 118:../DaisySP/Source/Effects/pitchshifter.h ****             fade2 = 1.0f - fade2;
 309              		.loc 15 118 13 is_stmt 1 view .LVU80
 310              		.loc 15 118 19 is_stmt 0 view .LVU81
 311 008e 77EEEAAA 		vsub.f32	s21, s15, s21
 312              	.L10:
 313              	.LVL10:
 119:../DaisySP/Source/Effects/pitchshifter.h ****         }
 120:../DaisySP/Source/Effects/pitchshifter.h ****         mod_[0] = fade1 * (del_size_ - 1);
 314              		.loc 15 120 9 is_stmt 1 view .LVU82
 315              		.loc 15 120 38 is_stmt 0 view .LVU83
 316 0092 013B     		subs	r3, r3, #1
 121:../DaisySP/Source/Effects/pitchshifter.h ****         mod_[1] = fade2 * (del_size_ - 1);
 122:../DaisySP/Source/Effects/pitchshifter.h **** #ifdef USE_ARM_DSP
 123:../DaisySP/Source/Effects/pitchshifter.h ****         gain_[0] = arm_sin_f32(fade1 * (float)M_PI);
 124:../DaisySP/Source/Effects/pitchshifter.h ****         gain_[1] = arm_sin_f32(fade2 * (float)M_PI);
 125:../DaisySP/Source/Effects/pitchshifter.h **** #else
 126:../DaisySP/Source/Effects/pitchshifter.h ****         gain_[0] = sinf(fade1 * PI_F);
 317              		.loc 15 126 24 view .LVU84
 318 0094 9FED85BA 		vldr.32	s22, .L15+8
 120:../DaisySP/Source/Effects/pitchshifter.h ****         mod_[1] = fade2 * (del_size_ - 1);
 319              		.loc 15 120 38 view .LVU85
 320 0098 09EE103A 		vmov	s18, r3	@ int
ARM GAS  /var/folders/v1/156fk8j97zv9pzndh61fy7zm0000gn/T//cc9ANSfA.s 			page 19


 321              		.loc 15 126 24 view .LVU86
 322 009c 29EE8B0A 		vmul.f32	s0, s19, s22
 120:../DaisySP/Source/Effects/pitchshifter.h ****         mod_[1] = fade2 * (del_size_ - 1);
 323              		.loc 15 120 25 view .LVU87
 324 00a0 B8EE499A 		vcvt.f32.u32	s18, s18
 325 00a4 69EE299A 		vmul.f32	s19, s18, s19
 326              	.LVL11:
 121:../DaisySP/Source/Effects/pitchshifter.h ****         mod_[1] = fade2 * (del_size_ - 1);
 327              		.loc 15 121 25 view .LVU88
 328 00a8 29EE2A9A 		vmul.f32	s18, s18, s21
 120:../DaisySP/Source/Effects/pitchshifter.h ****         mod_[1] = fade2 * (del_size_ - 1);
 329              		.loc 15 120 17 view .LVU89
 330 00ac C4ED169A 		vstr.32	s19, [r4, #88]
 121:../DaisySP/Source/Effects/pitchshifter.h ****         mod_[1] = fade2 * (del_size_ - 1);
 331              		.loc 15 121 9 is_stmt 1 view .LVU90
 127:../DaisySP/Source/Effects/pitchshifter.h ****         gain_[1] = sinf(fade2 * PI_F);
 128:../DaisySP/Source/Effects/pitchshifter.h **** #endif
 129:../DaisySP/Source/Effects/pitchshifter.h **** 
 130:../DaisySP/Source/Effects/pitchshifter.h ****         // Handle Delay Writing
 131:../DaisySP/Source/Effects/pitchshifter.h ****         d_[0].Write(in);
 132:../DaisySP/Source/Effects/pitchshifter.h ****         d_[1].Write(in);
 133:../DaisySP/Source/Effects/pitchshifter.h ****         // Modulate Delay Lines
 134:../DaisySP/Source/Effects/pitchshifter.h ****         //mod_a_amt = mod_b_amt = 0.0f;
 135:../DaisySP/Source/Effects/pitchshifter.h ****         d_[0].SetDelay(mod_[0] + mod_a_amt_);
 136:../DaisySP/Source/Effects/pitchshifter.h ****         d_[1].SetDelay(mod_[1] + mod_b_amt_);
 137:../DaisySP/Source/Effects/pitchshifter.h ****         d_[0].SetDelay(mod_[0] + slewed_mod_[0]);
 332              		.loc 15 137 23 is_stmt 0 view .LVU91
 333 00b0 78EEA98A 		vadd.f32	s17, s17, s19
 121:../DaisySP/Source/Effects/pitchshifter.h **** #ifdef USE_ARM_DSP
 334              		.loc 15 121 17 view .LVU92
 335 00b4 84ED179A 		vstr.32	s18, [r4, #92]
 126:../DaisySP/Source/Effects/pitchshifter.h ****         gain_[1] = sinf(fade2 * PI_F);
 336              		.loc 15 126 9 is_stmt 1 view .LVU93
 138:../DaisySP/Source/Effects/pitchshifter.h ****         d_[1].SetDelay(mod_[1] + slewed_mod_[1]);
 337              		.loc 15 138 23 is_stmt 0 view .LVU94
 338 00b8 38EE098A 		vadd.f32	s16, s16, s18
 126:../DaisySP/Source/Effects/pitchshifter.h ****         gain_[1] = sinf(fade2 * PI_F);
 339              		.loc 15 126 24 view .LVU95
 340 00bc FFF7FEFF 		bl	sinf
 341              	.LVL12:
 342 00c0 B0EE40AA 		vmov.f32	s20, s0
 127:../DaisySP/Source/Effects/pitchshifter.h **** #endif
 343              		.loc 15 127 24 view .LVU96
 344 00c4 2AEE8B0A 		vmul.f32	s0, s21, s22
 126:../DaisySP/Source/Effects/pitchshifter.h ****         gain_[1] = sinf(fade2 * PI_F);
 345              		.loc 15 126 18 discriminator 1 view .LVU97
 346 00c8 84ED14AA 		vstr.32	s20, [r4, #80]
 127:../DaisySP/Source/Effects/pitchshifter.h **** #endif
 347              		.loc 15 127 9 is_stmt 1 view .LVU98
 127:../DaisySP/Source/Effects/pitchshifter.h **** #endif
 348              		.loc 15 127 24 is_stmt 0 view .LVU99
 349 00cc FFF7FEFF 		bl	sinf
 350              	.LVL13:
 351              	.LBB960:
 352              	.LBB961:
 353              		.file 16 "../DaisySP/Source/Utility/delayline.h"
   1:../DaisySP/Source/Utility/delayline.h **** /*
ARM GAS  /var/folders/v1/156fk8j97zv9pzndh61fy7zm0000gn/T//cc9ANSfA.s 			page 20


   2:../DaisySP/Source/Utility/delayline.h **** Copyright (c) 2020 Electrosmith, Corp
   3:../DaisySP/Source/Utility/delayline.h **** 
   4:../DaisySP/Source/Utility/delayline.h **** Use of this source code is governed by an MIT-style
   5:../DaisySP/Source/Utility/delayline.h **** license that can be found in the LICENSE file or at
   6:../DaisySP/Source/Utility/delayline.h **** https://opensource.org/licenses/MIT.
   7:../DaisySP/Source/Utility/delayline.h **** */
   8:../DaisySP/Source/Utility/delayline.h **** 
   9:../DaisySP/Source/Utility/delayline.h **** #pragma once
  10:../DaisySP/Source/Utility/delayline.h **** #ifndef DSY_DELAY_H
  11:../DaisySP/Source/Utility/delayline.h **** #define DSY_DELAY_H
  12:../DaisySP/Source/Utility/delayline.h **** #include <stdlib.h>
  13:../DaisySP/Source/Utility/delayline.h **** #include <stdint.h>
  14:../DaisySP/Source/Utility/delayline.h **** namespace daisysp
  15:../DaisySP/Source/Utility/delayline.h **** {
  16:../DaisySP/Source/Utility/delayline.h **** /** Simple Delay line.
  17:../DaisySP/Source/Utility/delayline.h **** November 2019
  18:../DaisySP/Source/Utility/delayline.h **** 
  19:../DaisySP/Source/Utility/delayline.h **** Converted to Template December 2019
  20:../DaisySP/Source/Utility/delayline.h **** 
  21:../DaisySP/Source/Utility/delayline.h **** declaration example: (1 second of floats)
  22:../DaisySP/Source/Utility/delayline.h **** 
  23:../DaisySP/Source/Utility/delayline.h **** DelayLine<float, SAMPLE_RATE> del;
  24:../DaisySP/Source/Utility/delayline.h **** 
  25:../DaisySP/Source/Utility/delayline.h **** By: shensley
  26:../DaisySP/Source/Utility/delayline.h **** */
  27:../DaisySP/Source/Utility/delayline.h **** template <typename T, size_t max_size>
  28:../DaisySP/Source/Utility/delayline.h **** class DelayLine
  29:../DaisySP/Source/Utility/delayline.h **** {
  30:../DaisySP/Source/Utility/delayline.h ****   public:
  31:../DaisySP/Source/Utility/delayline.h ****     DelayLine() {}
  32:../DaisySP/Source/Utility/delayline.h ****     ~DelayLine() {}
  33:../DaisySP/Source/Utility/delayline.h ****     /** initializes the delay line by clearing the values within, and setting delay to 1 sample.
  34:../DaisySP/Source/Utility/delayline.h ****     */
  35:../DaisySP/Source/Utility/delayline.h ****     void Init() { Reset(); }
  36:../DaisySP/Source/Utility/delayline.h ****     /** clears buffer, sets write ptr to 0, and delay to 1 sample.
  37:../DaisySP/Source/Utility/delayline.h ****     */
  38:../DaisySP/Source/Utility/delayline.h ****     void Reset()
  39:../DaisySP/Source/Utility/delayline.h ****     {
  40:../DaisySP/Source/Utility/delayline.h ****         for(size_t i = 0; i < max_size; i++)
  41:../DaisySP/Source/Utility/delayline.h ****         {
  42:../DaisySP/Source/Utility/delayline.h ****             line_[i] = T(0);
  43:../DaisySP/Source/Utility/delayline.h ****         }
  44:../DaisySP/Source/Utility/delayline.h ****         write_ptr_ = 0;
  45:../DaisySP/Source/Utility/delayline.h ****         delay_     = 1;
  46:../DaisySP/Source/Utility/delayline.h ****     }
  47:../DaisySP/Source/Utility/delayline.h **** 
  48:../DaisySP/Source/Utility/delayline.h ****     /** sets the delay time in samples
  49:../DaisySP/Source/Utility/delayline.h ****         If a float is passed in, a fractional component will be calculated for interpolating the de
  50:../DaisySP/Source/Utility/delayline.h ****     */
  51:../DaisySP/Source/Utility/delayline.h ****     inline void SetDelay(size_t delay)
  52:../DaisySP/Source/Utility/delayline.h ****     {
  53:../DaisySP/Source/Utility/delayline.h ****         frac_  = 0.0f;
  54:../DaisySP/Source/Utility/delayline.h ****         delay_ = delay < max_size ? delay : max_size - 1;
  55:../DaisySP/Source/Utility/delayline.h ****     }
  56:../DaisySP/Source/Utility/delayline.h **** 
  57:../DaisySP/Source/Utility/delayline.h ****     /** sets the delay time in samples
  58:../DaisySP/Source/Utility/delayline.h ****         If a float is passed in, a fractional component will be calculated for interpolating the de
ARM GAS  /var/folders/v1/156fk8j97zv9pzndh61fy7zm0000gn/T//cc9ANSfA.s 			page 21


  59:../DaisySP/Source/Utility/delayline.h ****     */
  60:../DaisySP/Source/Utility/delayline.h ****     inline void SetDelay(float delay)
  61:../DaisySP/Source/Utility/delayline.h ****     {
  62:../DaisySP/Source/Utility/delayline.h ****         int32_t int_delay = static_cast<int32_t>(delay);
 354              		.loc 16 62 17 view .LVU100
 355 00d0 FDEEE86A 		vcvt.s32.f32	s13, s17
 356              	.LBE961:
 357              	.LBE960:
 127:../DaisySP/Source/Effects/pitchshifter.h **** #endif
 358              		.loc 15 127 24 view .LVU101
 359 00d4 B0EE407A 		vmov.f32	s14, s0
 360              	.LBB969:
 361              	.LBB970:
  63:../DaisySP/Source/Utility/delayline.h ****         frac_             = delay - static_cast<float>(int_delay);
  64:../DaisySP/Source/Utility/delayline.h ****         delay_ = static_cast<size_t>(int_delay) < max_size ? int_delay
  65:../DaisySP/Source/Utility/delayline.h ****                                                            : max_size - 1;
  66:../DaisySP/Source/Utility/delayline.h ****     }
  67:../DaisySP/Source/Utility/delayline.h **** 
  68:../DaisySP/Source/Utility/delayline.h ****     /** writes the sample of type T to the delay line, and advances the write ptr
  69:../DaisySP/Source/Utility/delayline.h ****     */
  70:../DaisySP/Source/Utility/delayline.h ****     inline void Write(const T sample)
  71:../DaisySP/Source/Utility/delayline.h ****     {
  72:../DaisySP/Source/Utility/delayline.h ****         line_[write_ptr_] = sample;
 362              		.loc 16 72 15 view .LVU102
 363 00d8 6A68     		ldr	r2, [r5, #4]
  73:../DaisySP/Source/Utility/delayline.h ****         write_ptr_        = (write_ptr_ - 1 + max_size) % max_size;
 364              		.loc 16 73 45 view .LVU103
 365 00da 43F6FF73 		movw	r3, #16383
 366              	.LBE970:
 367              	.LBE969:
 368              	.LBB975:
 369              	.LBB976:
  62:../DaisySP/Source/Utility/delayline.h ****         frac_             = delay - static_cast<float>(int_delay);
 370              		.loc 16 62 17 view .LVU104
 371 00de FDEEC87A 		vcvt.s32.f32	s15, s16
 372              	.LBE976:
 373              	.LBE975:
 374              	.LBB984:
 375              	.LBB971:
  72:../DaisySP/Source/Utility/delayline.h ****         write_ptr_        = (write_ptr_ - 1 + max_size) % max_size;
 376              		.loc 16 72 27 view .LVU105
 377 00e2 05EB8201 		add	r1, r5, r2, lsl #2
 378              	.LBE971:
 379              	.LBE984:
 380              	.LBB985:
 381              	.LBB962:
  63:../DaisySP/Source/Utility/delayline.h ****         delay_ = static_cast<size_t>(int_delay) < max_size ? int_delay
 382              		.loc 16 63 37 view .LVU106
 383 00e6 F8EEE65A 		vcvt.f32.s32	s11, s13
 384              	.LBE962:
 385              	.LBE985:
 127:../DaisySP/Source/Effects/pitchshifter.h **** #endif
 386              		.loc 15 127 18 discriminator 1 view .LVU107
 387 00ea 84ED157A 		vstr.32	s14, [r4, #84]
 131:../DaisySP/Source/Effects/pitchshifter.h ****         d_[1].Write(in);
 388              		.loc 15 131 9 is_stmt 1 view .LVU108
 389              	.LBB986:
ARM GAS  /var/folders/v1/156fk8j97zv9pzndh61fy7zm0000gn/T//cc9ANSfA.s 			page 22


 390              	.LBB972:
 391              		.loc 16 73 45 is_stmt 0 view .LVU109
 392 00ee 1A44     		add	r2, r2, r3
 393              	.LBE972:
 394              	.LBE986:
 131:../DaisySP/Source/Effects/pitchshifter.h ****         d_[1].Write(in);
 395              		.loc 15 131 20 view .LVU110
 396 00f0 D6F800C0 		ldr	ip, [r6]	@ float
 397              	.LVL14:
 398              	.LBB987:
 399              	.LBI969:
  70:../DaisySP/Source/Utility/delayline.h ****     {
 400              		.loc 16 70 17 is_stmt 1 view .LVU111
 401              	.LBE987:
 402              	.LBB988:
 403              	.LBB963:
  64:../DaisySP/Source/Utility/delayline.h ****                                                            : max_size - 1;
 404              		.loc 16 64 60 is_stmt 0 view .LVU112
 405 00f4 16EE906A 		vmov	r6, s13	@ int
 406              	.LVL15:
  64:../DaisySP/Source/Utility/delayline.h ****                                                            : max_size - 1;
 407              		.loc 16 64 60 view .LVU113
 408              	.LBE963:
 409              	.LBE988:
 410              	.LBB989:
 411              	.LBB977:
 412 00f8 17EE904A 		vmov	r4, s15	@ int
 413              	.LBE977:
 414              	.LBE989:
 415              	.LBB990:
 416              	.LBB973:
 417              		.loc 16 73 57 view .LVU114
 418 00fc C2F30D02 		ubfx	r2, r2, #0, #14
  72:../DaisySP/Source/Utility/delayline.h ****         write_ptr_        = (write_ptr_ - 1 + max_size) % max_size;
 419              		.loc 16 72 27 view .LVU115
 420 0100 C1F80CC0 		str	ip, [r1, #12]	@ float
 421              	.LBE973:
 422              	.LBE990:
 423              	.LBB991:
 424              	.LBB964:
  64:../DaisySP/Source/Utility/delayline.h ****                                                            : max_size - 1;
 425              		.loc 16 64 60 view .LVU116
 426 0104 9E42     		cmp	r6, r3
 427              	.LBE964:
 428              	.LBE991:
 429              	.LBB992:
 430              	.LBB993:
  72:../DaisySP/Source/Utility/delayline.h ****         write_ptr_        = (write_ptr_ - 1 + max_size) % max_size;
 431              		.loc 16 72 15 view .LVU117
 432 0106 05F58031 		add	r1, r5, #65536
 433              	.LBE993:
 434              	.LBE992:
 435              	.LBB999:
 436              	.LBB974:
 437              		.loc 16 73 27 view .LVU118
 438 010a 6A60     		str	r2, [r5, #4]
 439              	.LVL16:
ARM GAS  /var/folders/v1/156fk8j97zv9pzndh61fy7zm0000gn/T//cc9ANSfA.s 			page 23


 440              		.loc 16 73 27 view .LVU119
 441              	.LBE974:
 442              	.LBE999:
 132:../DaisySP/Source/Effects/pitchshifter.h ****         // Modulate Delay Lines
 443              		.loc 15 132 9 is_stmt 1 view .LVU120
 444              	.LBB1000:
 445              	.LBI992:
  70:../DaisySP/Source/Utility/delayline.h ****     {
 446              		.loc 16 70 17 view .LVU121
 447              	.LBE1000:
 448              	.LBB1001:
 449              	.LBB965:
  64:../DaisySP/Source/Utility/delayline.h ****                                                            : max_size - 1;
 450              		.loc 16 64 60 is_stmt 0 view .LVU122
 451 010c 28BF     		it	cs
 452 010e 1E46     		movcs	r6, r3
 453              	.LBE965:
 454              	.LBE1001:
 455              	.LBB1002:
 456              	.LBB978:
 457 0110 9C42     		cmp	r4, r3
 458              	.LBE978:
 459              	.LBE1002:
 460              	.LBB1003:
 461              	.LBB994:
  72:../DaisySP/Source/Utility/delayline.h ****         write_ptr_        = (write_ptr_ - 1 + max_size) % max_size;
 462              		.loc 16 72 15 view .LVU123
 463 0112 0869     		ldr	r0, [r1, #16]
 464              	.LBE994:
 465              	.LBE1003:
 466              	.LBB1004:
 467              	.LBB966:
  63:../DaisySP/Source/Utility/delayline.h ****         delay_ = static_cast<size_t>(int_delay) < max_size ? int_delay
 468              		.loc 16 63 35 view .LVU124
 469 0114 78EEE58A 		vsub.f32	s17, s17, s11
 470              	.LBE966:
 471              	.LBE1004:
 472              	.LBB1005:
 473              	.LBB979:
  64:../DaisySP/Source/Utility/delayline.h ****                                                            : max_size - 1;
 474              		.loc 16 64 60 view .LVU125
 475 0118 28BF     		it	cs
 476 011a 1C46     		movcs	r4, r3
 477              	.LBE979:
 478              	.LBE1005:
 479              	.LBB1006:
 480              	.LBB1007:
  74:../DaisySP/Source/Utility/delayline.h ****     }
  75:../DaisySP/Source/Utility/delayline.h **** 
  76:../DaisySP/Source/Utility/delayline.h ****     /** returns the next sample of type T in the delay line, interpolated if necessary.
  77:../DaisySP/Source/Utility/delayline.h ****     */
  78:../DaisySP/Source/Utility/delayline.h ****     inline const T Read() const
  79:../DaisySP/Source/Utility/delayline.h ****     {
  80:../DaisySP/Source/Utility/delayline.h ****         T a = line_[(write_ptr_ + delay_) % max_size];
 481              		.loc 16 80 33 view .LVU126
 482 011c 3244     		add	r2, r2, r6
 483              	.LBE1007:
ARM GAS  /var/folders/v1/156fk8j97zv9pzndh61fy7zm0000gn/T//cc9ANSfA.s 			page 24


 484              	.LBE1006:
 485              	.LBB1015:
 486              	.LBB995:
  73:../DaisySP/Source/Utility/delayline.h ****     }
 487              		.loc 16 73 45 view .LVU127
 488 011e 0344     		add	r3, r3, r0
  72:../DaisySP/Source/Utility/delayline.h ****         write_ptr_        = (write_ptr_ - 1 + max_size) % max_size;
 489              		.loc 16 72 27 view .LVU128
 490 0120 01EB8000 		add	r0, r1, r0, lsl #2
 491              	.LBE995:
 492              	.LBE1015:
 493              	.LBB1016:
 494              	.LBB980:
  63:../DaisySP/Source/Utility/delayline.h ****         delay_ = static_cast<size_t>(int_delay) < max_size ? int_delay
 495              		.loc 16 63 37 view .LVU129
 496 0124 B8EEE76A 		vcvt.f32.s32	s12, s15
 497              	.LBE980:
 498              	.LBE1016:
 139:../DaisySP/Source/Effects/pitchshifter.h ****         val = 0.0f;
 140:../DaisySP/Source/Effects/pitchshifter.h ****         val += (d_[0].Read() * gain_[0]);
 499              		.loc 15 140 13 discriminator 1 view .LVU130
 500 0128 9FED610A 		vldr.32	s0, .L15+12
 501              	.LBB1017:
 502              	.LBB996:
  72:../DaisySP/Source/Utility/delayline.h ****         write_ptr_        = (write_ptr_ - 1 + max_size) % max_size;
 503              		.loc 16 72 27 view .LVU131
 504 012c C0F818C0 		str	ip, [r0, #24]	@ float
 505              	.LBE996:
 506              	.LBE1017:
 507              	.LBB1018:
 508              	.LBB1008:
 509              		.loc 16 80 43 view .LVU132
 510 0130 C2F30D00 		ubfx	r0, r2, #0, #14
  81:../DaisySP/Source/Utility/delayline.h ****         T b = line_[(write_ptr_ + delay_ + 1) % max_size];
 511              		.loc 16 81 42 view .LVU133
 512 0134 0132     		adds	r2, r2, #1
 513              	.LBE1008:
 514              	.LBE1018:
 515              	.LBB1019:
 516              	.LBB997:
  73:../DaisySP/Source/Utility/delayline.h ****     }
 517              		.loc 16 73 57 view .LVU134
 518 0136 C3F30D03 		ubfx	r3, r3, #0, #14
 519              	.LBE997:
 520              	.LBE1019:
 521              	.LBB1020:
 522              	.LBB1009:
  80:../DaisySP/Source/Utility/delayline.h ****         T b = line_[(write_ptr_ + delay_ + 1) % max_size];
 523              		.loc 16 80 11 view .LVU135
 524 013a 05EB8000 		add	r0, r5, r0, lsl #2
 525              	.LBE1009:
 526              	.LBE1020:
 527              	.LBB1021:
 528              	.LBB981:
  63:../DaisySP/Source/Utility/delayline.h ****         delay_ = static_cast<size_t>(int_delay) < max_size ? int_delay
 529              		.loc 16 63 35 view .LVU136
 530 013e 38EE468A 		vsub.f32	s16, s16, s12
ARM GAS  /var/folders/v1/156fk8j97zv9pzndh61fy7zm0000gn/T//cc9ANSfA.s 			page 25


 531              	.LBE981:
 532              	.LBE1021:
 533              	.LBB1022:
 534              	.LBB1010:
 535              		.loc 16 81 47 view .LVU137
 536 0142 C2F30D02 		ubfx	r2, r2, #0, #14
 537              	.LBE1010:
 538              	.LBE1022:
 539              	.LBB1023:
 540              	.LBB998:
  73:../DaisySP/Source/Utility/delayline.h ****     }
 541              		.loc 16 73 27 view .LVU138
 542 0146 0B61     		str	r3, [r1, #16]
 543              	.LVL17:
  73:../DaisySP/Source/Utility/delayline.h ****     }
 544              		.loc 16 73 27 view .LVU139
 545              	.LBE998:
 546              	.LBE1023:
 135:../DaisySP/Source/Effects/pitchshifter.h ****         d_[1].SetDelay(mod_[1] + mod_b_amt_);
 547              		.loc 15 135 9 is_stmt 1 view .LVU140
 136:../DaisySP/Source/Effects/pitchshifter.h ****         d_[0].SetDelay(mod_[0] + slewed_mod_[0]);
 548              		.loc 15 136 9 view .LVU141
 137:../DaisySP/Source/Effects/pitchshifter.h ****         d_[1].SetDelay(mod_[1] + slewed_mod_[1]);
 549              		.loc 15 137 9 view .LVU142
 550              	.LBB1024:
 551              	.LBI960:
  60:../DaisySP/Source/Utility/delayline.h ****     {
 552              		.loc 16 60 17 view .LVU143
 553              	.LBB967:
  63:../DaisySP/Source/Utility/delayline.h ****         delay_ = static_cast<size_t>(int_delay) < max_size ? int_delay
 554              		.loc 16 63 27 is_stmt 0 view .LVU144
 555 0148 C5ED008A 		vstr.32	s17, [r5]
 556              	.LBE967:
 557              	.LBE1024:
 558              	.LBB1025:
 559              	.LBB1026:
  80:../DaisySP/Source/Utility/delayline.h ****         T b = line_[(write_ptr_ + delay_ + 1) % max_size];
 560              		.loc 16 80 33 view .LVU145
 561 014c 2344     		add	r3, r3, r4
 562              	.LBE1026:
 563              	.LBE1025:
 564              	.LBB1032:
 565              	.LBB968:
  64:../DaisySP/Source/Utility/delayline.h ****                                                            : max_size - 1;
 566              		.loc 16 64 16 view .LVU146
 567 014e AE60     		str	r6, [r5, #8]
 568              	.LVL18:
  64:../DaisySP/Source/Utility/delayline.h ****                                                            : max_size - 1;
 569              		.loc 16 64 16 view .LVU147
 570              	.LBE968:
 571              	.LBE1032:
 138:../DaisySP/Source/Effects/pitchshifter.h ****         val = 0.0f;
 572              		.loc 15 138 9 is_stmt 1 view .LVU148
 573              	.LBB1033:
 574              	.LBI975:
  60:../DaisySP/Source/Utility/delayline.h ****     {
 575              		.loc 16 60 17 view .LVU149
ARM GAS  /var/folders/v1/156fk8j97zv9pzndh61fy7zm0000gn/T//cc9ANSfA.s 			page 26


  60:../DaisySP/Source/Utility/delayline.h ****     {
 576              		.loc 16 60 17 is_stmt 0 view .LVU150
 577              	.LBE1033:
 578              	.LBB1034:
 579              	.LBB1011:
 580              		.loc 16 81 11 view .LVU151
 581 0150 05EB8205 		add	r5, r5, r2, lsl #2
 582              	.LVL19:
  80:../DaisySP/Source/Utility/delayline.h ****         T b = line_[(write_ptr_ + delay_ + 1) % max_size];
 583              		.loc 16 80 11 view .LVU152
 584 0154 D0ED036A 		vldr.32	s13, [r0, #12]
 585              	.LBE1011:
 586              	.LBE1034:
 587              	.LBB1035:
 588              	.LBB1027:
 589              		.loc 16 81 42 view .LVU153
 590 0158 5A1C     		adds	r2, r3, #1
 591              	.LBE1027:
 592              	.LBE1035:
 593              	.LBB1036:
 594              	.LBB1012:
  82:../DaisySP/Source/Utility/delayline.h ****         return a + (b - a) * frac_;
 595              		.loc 16 82 23 view .LVU154
 596 015a 95ED036A 		vldr.32	s12, [r5, #12]
 597              	.LBE1012:
 598              	.LBE1036:
 599              	.LBB1037:
 600              	.LBB1028:
  80:../DaisySP/Source/Utility/delayline.h ****         T b = line_[(write_ptr_ + delay_ + 1) % max_size];
 601              		.loc 16 80 43 view .LVU155
 602 015e C3F30D03 		ubfx	r3, r3, #0, #14
  81:../DaisySP/Source/Utility/delayline.h ****         return a + (b - a) * frac_;
 603              		.loc 16 81 47 view .LVU156
 604 0162 C2F30D02 		ubfx	r2, r2, #0, #14
 605              	.LBE1028:
 606              	.LBE1037:
 607              	.LBB1038:
 608              	.LBB982:
  63:../DaisySP/Source/Utility/delayline.h ****         delay_ = static_cast<size_t>(int_delay) < max_size ? int_delay
 609              		.loc 16 63 27 view .LVU157
 610 0166 81ED038A 		vstr.32	s16, [r1, #12]
 611              	.LBE982:
 612              	.LBE1038:
 613              	.LBB1039:
 614              	.LBB1013:
 615              		.loc 16 82 23 view .LVU158
 616 016a 36EE666A 		vsub.f32	s12, s12, s13
 617              	.LBE1013:
 618              	.LBE1039:
 619              	.LBB1040:
 620              	.LBB1029:
  80:../DaisySP/Source/Utility/delayline.h ****         T b = line_[(write_ptr_ + delay_ + 1) % max_size];
 621              		.loc 16 80 11 view .LVU159
 622 016e 01EB8303 		add	r3, r1, r3, lsl #2
  81:../DaisySP/Source/Utility/delayline.h ****         return a + (b - a) * frac_;
 623              		.loc 16 81 11 view .LVU160
 624 0172 01EB8202 		add	r2, r1, r2, lsl #2
ARM GAS  /var/folders/v1/156fk8j97zv9pzndh61fy7zm0000gn/T//cc9ANSfA.s 			page 27


 625              	.LBE1029:
 626              	.LBE1040:
 627              	.LBB1041:
 628              	.LBB983:
  64:../DaisySP/Source/Utility/delayline.h ****                                                            : max_size - 1;
 629              		.loc 16 64 16 view .LVU161
 630 0176 4C61     		str	r4, [r1, #20]
 631              	.LVL20:
  64:../DaisySP/Source/Utility/delayline.h ****                                                            : max_size - 1;
 632              		.loc 16 64 16 view .LVU162
 633              	.LBE983:
 634              	.LBE1041:
 139:../DaisySP/Source/Effects/pitchshifter.h ****         val += (d_[0].Read() * gain_[0]);
 635              		.loc 15 139 9 is_stmt 1 view .LVU163
 636              		.loc 15 140 9 view .LVU164
 637              	.LBB1042:
 638              	.LBI1006:
  78:../DaisySP/Source/Utility/delayline.h ****     {
 639              		.loc 16 78 20 view .LVU165
  78:../DaisySP/Source/Utility/delayline.h ****     {
 640              		.loc 16 78 20 is_stmt 0 view .LVU166
 641              	.LBE1042:
 642              	.LBB1043:
 643              	.LBB1030:
  80:../DaisySP/Source/Utility/delayline.h ****         T b = line_[(write_ptr_ + delay_ + 1) % max_size];
 644              		.loc 16 80 11 view .LVU167
 645 0178 D3ED067A 		vldr.32	s15, [r3, #24]
 646              	.LBE1030:
 647              	.LBE1043:
 648              	.LBB1044:
 649              	.LBB1014:
 650              		.loc 16 82 30 view .LVU168
 651 017c E8EE866A 		vfma.f32	s13, s17, s12
 652              	.LVL21:
 653              		.loc 16 82 30 view .LVU169
 654              	.LBE1014:
 655              	.LBE1044:
 656              	.LBB1045:
 657              	.LBB1031:
 658              		.loc 16 82 23 view .LVU170
 659 0180 92ED066A 		vldr.32	s12, [r2, #24]
 660 0184 36EE676A 		vsub.f32	s12, s12, s15
 661              		.loc 16 82 30 view .LVU171
 662 0188 E8EE067A 		vfma.f32	s15, s16, s12
 663              	.LBE1031:
 664              	.LBE1045:
 665              		.loc 15 140 13 discriminator 1 view .LVU172
 666 018c AAEE260A 		vfma.f32	s0, s20, s13
 667              	.LVL22:
 141:../DaisySP/Source/Effects/pitchshifter.h ****         val += (d_[1].Read() * gain_[1]);
 668              		.loc 15 141 9 is_stmt 1 view .LVU173
 669              	.LBB1046:
 670              	.LBI1025:
  78:../DaisySP/Source/Utility/delayline.h ****     {
 671              		.loc 16 78 20 view .LVU174
  78:../DaisySP/Source/Utility/delayline.h ****     {
 672              		.loc 16 78 20 is_stmt 0 view .LVU175
ARM GAS  /var/folders/v1/156fk8j97zv9pzndh61fy7zm0000gn/T//cc9ANSfA.s 			page 28


 673              	.LBE1046:
 142:../DaisySP/Source/Effects/pitchshifter.h ****         return val;
 674              		.loc 15 142 9 is_stmt 1 view .LVU176
 143:../DaisySP/Source/Effects/pitchshifter.h ****     }
 675              		.loc 15 143 5 is_stmt 0 view .LVU177
 676 0190 BDEC088B 		vldm	sp!, {d8-d11}
 677              		.cfi_remember_state
 678              		.cfi_restore 86
 679              		.cfi_restore 87
 680              		.cfi_restore 84
 681              		.cfi_restore 85
 682              		.cfi_restore 82
 683              		.cfi_restore 83
 684              		.cfi_restore 80
 685              		.cfi_restore 81
 686              		.cfi_def_cfa_offset 24
 687 0194 A7EE270A 		vfma.f32	s0, s14, s15
 688              	.LVL23:
 689              		.loc 15 143 5 view .LVU178
 690 0198 F8BD     		pop	{r3, r4, r5, r6, r7, pc}
 691              	.LVL24:
 692              	.L8:
 693              		.cfi_restore_state
 106:../DaisySP/Source/Effects/pitchshifter.h ****                          * (del_size_ * 0.5f);
 694              		.loc 15 106 13 is_stmt 1 view .LVU179
 695              	.LBB1047:
 696              	.LBI1047:
  39:../DaisySP/Source/Effects/pitchshifter.h **** {
 697              		.loc 15 39 17 view .LVU180
 698              	.LBB1048:
  41:../DaisySP/Source/Effects/pitchshifter.h ****     seed                 = hash_xs32(seed);
 699              		.loc 15 41 5 view .LVU181
  42:../DaisySP/Source/Effects/pitchshifter.h ****     return seed;
 700              		.loc 15 42 5 view .LVU182
  42:../DaisySP/Source/Effects/pitchshifter.h ****     return seed;
 701              		.loc 15 42 37 is_stmt 0 view .LVU183
 702 019a 464F     		ldr	r7, .L15+16
 703              	.LBE1048:
 704              	.LBE1047:
 106:../DaisySP/Source/Effects/pitchshifter.h ****                          * (del_size_ * 0.5f);
 705              		.loc 15 106 51 discriminator 1 view .LVU184
 706 019c 4649     		ldr	r1, .L15+20
 707              	.LBB1061:
 708              	.LBB1057:
  42:../DaisySP/Source/Effects/pitchshifter.h ****     return seed;
 709              		.loc 15 42 37 view .LVU185
 710 019e 3A68     		ldr	r2, [r7]
 711              	.LVL25:
 712              	.LBB1049:
 713              	.LBI1049:
  31:../DaisySP/Source/Effects/pitchshifter.h **** {
 714              		.loc 15 31 24 is_stmt 1 view .LVU186
 715              	.LBB1050:
  33:../DaisySP/Source/Effects/pitchshifter.h ****     x ^= x >> 17;
 716              		.loc 15 33 5 view .LVU187
 717              	.LBE1050:
 718              	.LBE1049:
ARM GAS  /var/folders/v1/156fk8j97zv9pzndh61fy7zm0000gn/T//cc9ANSfA.s 			page 29


 719              	.LBE1057:
 720              	.LBE1061:
 106:../DaisySP/Source/Effects/pitchshifter.h ****                          * (del_size_ * 0.5f);
 721              		.loc 15 106 58 is_stmt 0 discriminator 1 view .LVU188
 722 01a0 9FED465A 		vldr.32	s10, .L15+24
 723              	.LBB1062:
 724              	.LBB1058:
 725              	.LBB1054:
 726              	.LBB1051:
  33:../DaisySP/Source/Effects/pitchshifter.h ****     x ^= x >> 17;
 727              		.loc 15 33 7 view .LVU189
 728 01a4 82EA4232 		eor	r2, r2, r2, lsl #13
 729              	.LVL26:
  34:../DaisySP/Source/Effects/pitchshifter.h ****     x ^= x << 5;
 730              		.loc 15 34 5 is_stmt 1 view .LVU190
 731              	.LBE1051:
 732              	.LBE1054:
 733              	.LBE1058:
 734              	.LBE1062:
 106:../DaisySP/Source/Effects/pitchshifter.h ****                          * (del_size_ * 0.5f);
 735              		.loc 15 106 31 is_stmt 0 discriminator 1 view .LVU191
 736 01a8 D4ED193A 		vldr.32	s7, [r4, #100]
 109:../DaisySP/Source/Effects/pitchshifter.h ****         }
 737              		.loc 15 109 27 discriminator 1 view .LVU192
 738 01ac 9FED446A 		vldr.32	s12, .L15+28
 739              	.LBB1063:
 740              	.LBB1059:
 741              	.LBB1055:
 742              	.LBB1052:
  34:../DaisySP/Source/Effects/pitchshifter.h ****     x ^= x << 5;
 743              		.loc 15 34 7 view .LVU193
 744 01b0 82EA5242 		eor	r2, r2, r2, lsr #17
 745              	.LVL27:
  35:../DaisySP/Source/Effects/pitchshifter.h ****     return x;
 746              		.loc 15 35 5 is_stmt 1 view .LVU194
 747              	.LBE1052:
 748              	.LBE1055:
 749              	.LBE1059:
 750              	.LBE1063:
 109:../DaisySP/Source/Effects/pitchshifter.h ****         }
 751              		.loc 15 109 27 is_stmt 0 discriminator 1 view .LVU195
 752 01b4 DFED434A 		vldr.32	s9, .L15+32
 753              	.LBB1064:
 754              	.LBB1060:
 755              	.LBB1056:
 756              	.LBB1053:
  35:../DaisySP/Source/Effects/pitchshifter.h ****     return x;
 757              		.loc 15 35 7 view .LVU196
 758 01b8 82EA4212 		eor	r2, r2, r2, lsl #5
 759              	.LVL28:
  36:../DaisySP/Source/Effects/pitchshifter.h **** }
 760              		.loc 15 36 5 is_stmt 1 view .LVU197
  36:../DaisySP/Source/Effects/pitchshifter.h **** }
 761              		.loc 15 36 5 is_stmt 0 view .LVU198
 762              	.LBE1053:
 763              	.LBE1056:
  43:../DaisySP/Source/Effects/pitchshifter.h **** }
ARM GAS  /var/folders/v1/156fk8j97zv9pzndh61fy7zm0000gn/T//cc9ANSfA.s 			page 30


 764              		.loc 15 43 5 is_stmt 1 view .LVU199
 765              	.LBE1060:
 766              	.LBE1064:
 767              	.LBB1065:
 768              	.LBB1066:
 769              	.LBB1067:
 770              	.LBB1068:
  33:../DaisySP/Source/Effects/pitchshifter.h ****     x ^= x >> 17;
 771              		.loc 15 33 7 is_stmt 0 view .LVU200
 772 01bc 82EA4230 		eor	r0, r2, r2, lsl #13
  34:../DaisySP/Source/Effects/pitchshifter.h ****     x ^= x << 5;
 773              		.loc 15 34 7 view .LVU201
 774 01c0 80EA5040 		eor	r0, r0, r0, lsr #17
  35:../DaisySP/Source/Effects/pitchshifter.h ****     return x;
 775              		.loc 15 35 7 view .LVU202
 776 01c4 80EA4010 		eor	r0, r0, r0, lsl #5
 777              	.LBE1068:
 778              	.LBE1067:
  42:../DaisySP/Source/Effects/pitchshifter.h ****     return seed;
 779              		.loc 15 42 26 discriminator 1 view .LVU203
 780 01c8 3860     		str	r0, [r7]
 781              	.LBE1066:
 782              	.LBE1065:
 106:../DaisySP/Source/Effects/pitchshifter.h ****                          * (del_size_ * 0.5f);
 783              		.loc 15 106 51 discriminator 1 view .LVU204
 784 01ca A1FB027C 		umull	r7, ip, r1, r2
 109:../DaisySP/Source/Effects/pitchshifter.h ****         }
 785              		.loc 15 109 48 discriminator 1 view .LVU205
 786 01ce A1FB0071 		umull	r7, r1, r1, r0
 106:../DaisySP/Source/Effects/pitchshifter.h ****                          * (del_size_ * 0.5f);
 787              		.loc 15 106 51 discriminator 1 view .LVU206
 788 01d2 4FEADC1C 		lsr	ip, ip, #7
 109:../DaisySP/Source/Effects/pitchshifter.h ****         }
 789              		.loc 15 109 48 discriminator 1 view .LVU207
 790 01d6 C909     		lsrs	r1, r1, #7
 106:../DaisySP/Source/Effects/pitchshifter.h ****                          * (del_size_ * 0.5f);
 791              		.loc 15 106 51 discriminator 1 view .LVU208
 792 01d8 CCEB0C2C 		rsb	ip, ip, ip, lsl #8
 109:../DaisySP/Source/Effects/pitchshifter.h ****         }
 793              		.loc 15 109 48 discriminator 1 view .LVU209
 794 01dc C1EB0121 		rsb	r1, r1, r1, lsl #8
 106:../DaisySP/Source/Effects/pitchshifter.h ****                          * (del_size_ * 0.5f);
 795              		.loc 15 106 51 discriminator 1 view .LVU210
 796 01e0 A2EB0C02 		sub	r2, r2, ip
 109:../DaisySP/Source/Effects/pitchshifter.h ****         }
 797              		.loc 15 109 48 discriminator 1 view .LVU211
 798 01e4 401A     		subs	r0, r0, r1
 106:../DaisySP/Source/Effects/pitchshifter.h ****                          * (del_size_ * 0.5f);
 799              		.loc 15 106 34 discriminator 1 view .LVU212
 800 01e6 07EE902A 		vmov	s15, r2	@ int
 801 01ea F8EEE76A 		vcvt.f32.s32	s13, s15
 106:../DaisySP/Source/Effects/pitchshifter.h ****                          * (del_size_ * 0.5f);
 802              		.loc 15 106 58 discriminator 1 view .LVU213
 803 01ee C6EE857A 		vdiv.f32	s15, s13, s10
 109:../DaisySP/Source/Effects/pitchshifter.h ****         }
 804              		.loc 15 109 31 discriminator 1 view .LVU214
 805 01f2 06EE900A 		vmov	s13, r0	@ int
ARM GAS  /var/folders/v1/156fk8j97zv9pzndh61fy7zm0000gn/T//cc9ANSfA.s 			page 31


 806 01f6 F8EEE66A 		vcvt.f32.s32	s13, s13
 109:../DaisySP/Source/Effects/pitchshifter.h ****         }
 807              		.loc 15 109 55 discriminator 1 view .LVU215
 808 01fa 86EE854A 		vdiv.f32	s8, s13, s10
 107:../DaisySP/Source/Effects/pitchshifter.h ****             mod_coeff_[1]
 809              		.loc 15 107 26 view .LVU216
 810 01fe 06EE903A 		vmov	s13, r3	@ int
 811 0202 FBEEEF6A 		vcvt.f32.u32	s13, s13, #1
 106:../DaisySP/Source/Effects/pitchshifter.h ****                          * (del_size_ * 0.5f);
 812              		.loc 15 106 31 discriminator 1 view .LVU217
 813 0206 67EEA37A 		vmul.f32	s15, s15, s7
 107:../DaisySP/Source/Effects/pitchshifter.h ****             mod_coeff_[1]
 814              		.loc 15 107 26 view .LVU218
 815 020a 67EEA67A 		vmul.f32	s15, s15, s13
 109:../DaisySP/Source/Effects/pitchshifter.h ****         }
 816              		.loc 15 109 27 discriminator 1 view .LVU219
 817 020e F0EE466A 		vmov.f32	s13, s12
 106:../DaisySP/Source/Effects/pitchshifter.h ****                          * (del_size_ * 0.5f);
 818              		.loc 15 106 24 view .LVU220
 819 0212 C4ED1B7A 		vstr.32	s15, [r4, #108]
 108:../DaisySP/Source/Effects/pitchshifter.h ****                 = 0.0002f + (((float)(myrand() % 255) / 255.0f) * 0.001f);
 820              		.loc 15 108 13 is_stmt 1 view .LVU221
 821              	.LBB1072:
 822              	.LBI1065:
  39:../DaisySP/Source/Effects/pitchshifter.h **** {
 823              		.loc 15 39 17 view .LVU222
 824              	.LBB1071:
  41:../DaisySP/Source/Effects/pitchshifter.h ****     seed                 = hash_xs32(seed);
 825              		.loc 15 41 5 view .LVU223
  42:../DaisySP/Source/Effects/pitchshifter.h ****     return seed;
 826              		.loc 15 42 5 view .LVU224
 827              	.LVL29:
 828              	.LBB1070:
 829              	.LBI1067:
  31:../DaisySP/Source/Effects/pitchshifter.h **** {
 830              		.loc 15 31 24 view .LVU225
 831              	.LBB1069:
  33:../DaisySP/Source/Effects/pitchshifter.h ****     x ^= x >> 17;
 832              		.loc 15 33 5 view .LVU226
  34:../DaisySP/Source/Effects/pitchshifter.h ****     x ^= x << 5;
 833              		.loc 15 34 5 view .LVU227
  35:../DaisySP/Source/Effects/pitchshifter.h ****     return x;
 834              		.loc 15 35 5 view .LVU228
  36:../DaisySP/Source/Effects/pitchshifter.h **** }
 835              		.loc 15 36 5 view .LVU229
  36:../DaisySP/Source/Effects/pitchshifter.h **** }
 836              		.loc 15 36 5 is_stmt 0 view .LVU230
 837              	.LBE1069:
 838              	.LBE1070:
  43:../DaisySP/Source/Effects/pitchshifter.h **** }
 839              		.loc 15 43 5 is_stmt 1 view .LVU231
 840              	.LBE1071:
 841              	.LBE1072:
 109:../DaisySP/Source/Effects/pitchshifter.h ****         }
 842              		.loc 15 109 27 is_stmt 0 discriminator 1 view .LVU232
 843 0216 E4EE246A 		vfma.f32	s13, s8, s9
 109:../DaisySP/Source/Effects/pitchshifter.h ****         }
ARM GAS  /var/folders/v1/156fk8j97zv9pzndh61fy7zm0000gn/T//cc9ANSfA.s 			page 32


 844              		.loc 15 109 17 discriminator 1 view .LVU233
 845 021a C4ED216A 		vstr.32	s13, [r4, #132]
 846 021e 1BE7     		b	.L9
 847              	.L6:
  99:../DaisySP/Source/Effects/pitchshifter.h ****                          * (del_size_ * 0.5f);
 848              		.loc 15 99 13 is_stmt 1 view .LVU234
 849              	.LBB1073:
 850              	.LBI1073:
  39:../DaisySP/Source/Effects/pitchshifter.h **** {
 851              		.loc 15 39 17 view .LVU235
 852              	.LBB1074:
  41:../DaisySP/Source/Effects/pitchshifter.h ****     seed                 = hash_xs32(seed);
 853              		.loc 15 41 5 view .LVU236
  42:../DaisySP/Source/Effects/pitchshifter.h ****     return seed;
 854              		.loc 15 42 5 view .LVU237
  42:../DaisySP/Source/Effects/pitchshifter.h ****     return seed;
 855              		.loc 15 42 37 is_stmt 0 view .LVU238
 856 0220 244F     		ldr	r7, .L15+16
 857              	.LBE1074:
 858              	.LBE1073:
  99:../DaisySP/Source/Effects/pitchshifter.h ****                          * (del_size_ * 0.5f);
 859              		.loc 15 99 51 discriminator 1 view .LVU239
 860 0222 2548     		ldr	r0, .L15+20
 861              	.LBB1087:
 862              	.LBB1083:
  42:../DaisySP/Source/Effects/pitchshifter.h ****     return seed;
 863              		.loc 15 42 37 view .LVU240
 864 0224 3A68     		ldr	r2, [r7]
 865              	.LVL30:
 866              	.LBB1075:
 867              	.LBI1075:
  31:../DaisySP/Source/Effects/pitchshifter.h **** {
 868              		.loc 15 31 24 is_stmt 1 view .LVU241
 869              	.LBB1076:
  33:../DaisySP/Source/Effects/pitchshifter.h ****     x ^= x >> 17;
 870              		.loc 15 33 5 view .LVU242
 871              	.LBE1076:
 872              	.LBE1075:
 873              	.LBE1083:
 874              	.LBE1087:
  99:../DaisySP/Source/Effects/pitchshifter.h ****                          * (del_size_ * 0.5f);
 875              		.loc 15 99 58 is_stmt 0 discriminator 1 view .LVU243
 876 0226 DFED256A 		vldr.32	s13, .L15+24
 877              	.LBB1088:
 878              	.LBB1084:
 879              	.LBB1080:
 880              	.LBB1077:
  33:../DaisySP/Source/Effects/pitchshifter.h ****     x ^= x >> 17;
 881              		.loc 15 33 7 view .LVU244
 882 022a 82EA4232 		eor	r2, r2, r2, lsl #13
 883              	.LVL31:
  34:../DaisySP/Source/Effects/pitchshifter.h ****     x ^= x << 5;
 884              		.loc 15 34 5 is_stmt 1 view .LVU245
 885              	.LBE1077:
 886              	.LBE1080:
 887              	.LBE1084:
 888              	.LBE1088:
ARM GAS  /var/folders/v1/156fk8j97zv9pzndh61fy7zm0000gn/T//cc9ANSfA.s 			page 33


  99:../DaisySP/Source/Effects/pitchshifter.h ****                          * (del_size_ * 0.5f);
 889              		.loc 15 99 31 is_stmt 0 discriminator 1 view .LVU246
 890 022e D4ED194A 		vldr.32	s9, [r4, #100]
 102:../DaisySP/Source/Effects/pitchshifter.h ****         }
 891              		.loc 15 102 27 discriminator 1 view .LVU247
 892 0232 9FED246A 		vldr.32	s12, .L15+32
 893              	.LBB1089:
 894              	.LBB1085:
 895              	.LBB1081:
 896              	.LBB1078:
  34:../DaisySP/Source/Effects/pitchshifter.h ****     x ^= x << 5;
 897              		.loc 15 34 7 view .LVU248
 898 0236 82EA5242 		eor	r2, r2, r2, lsr #17
 899              	.LVL32:
  35:../DaisySP/Source/Effects/pitchshifter.h ****     return x;
 900              		.loc 15 35 5 is_stmt 1 view .LVU249
 901              	.LBE1078:
 902              	.LBE1081:
 903              	.LBE1085:
 904              	.LBE1089:
 102:../DaisySP/Source/Effects/pitchshifter.h ****         }
 905              		.loc 15 102 27 is_stmt 0 discriminator 1 view .LVU250
 906 023a DFED215A 		vldr.32	s11, .L15+28
 907              	.LBB1090:
 908              	.LBB1086:
 909              	.LBB1082:
 910              	.LBB1079:
  35:../DaisySP/Source/Effects/pitchshifter.h ****     return x;
 911              		.loc 15 35 7 view .LVU251
 912 023e 82EA4212 		eor	r2, r2, r2, lsl #5
 913              	.LVL33:
  36:../DaisySP/Source/Effects/pitchshifter.h **** }
 914              		.loc 15 36 5 is_stmt 1 view .LVU252
  36:../DaisySP/Source/Effects/pitchshifter.h **** }
 915              		.loc 15 36 5 is_stmt 0 view .LVU253
 916              	.LBE1079:
 917              	.LBE1082:
  43:../DaisySP/Source/Effects/pitchshifter.h **** }
 918              		.loc 15 43 5 is_stmt 1 view .LVU254
 919              	.LBE1086:
 920              	.LBE1090:
 921              	.LBB1091:
 922              	.LBB1092:
 923              	.LBB1093:
 924              	.LBB1094:
  33:../DaisySP/Source/Effects/pitchshifter.h ****     x ^= x >> 17;
 925              		.loc 15 33 7 is_stmt 0 view .LVU255
 926 0242 82EA4231 		eor	r1, r2, r2, lsl #13
  34:../DaisySP/Source/Effects/pitchshifter.h ****     x ^= x << 5;
 927              		.loc 15 34 7 view .LVU256
 928 0246 81EA5141 		eor	r1, r1, r1, lsr #17
  35:../DaisySP/Source/Effects/pitchshifter.h ****     return x;
 929              		.loc 15 35 7 view .LVU257
 930 024a 81EA4111 		eor	r1, r1, r1, lsl #5
 931              	.LBE1094:
 932              	.LBE1093:
  42:../DaisySP/Source/Effects/pitchshifter.h ****     return seed;
ARM GAS  /var/folders/v1/156fk8j97zv9pzndh61fy7zm0000gn/T//cc9ANSfA.s 			page 34


 933              		.loc 15 42 26 discriminator 1 view .LVU258
 934 024e 3960     		str	r1, [r7]
 935              	.LBE1092:
 936              	.LBE1091:
  99:../DaisySP/Source/Effects/pitchshifter.h ****                          * (del_size_ * 0.5f);
 937              		.loc 15 99 51 discriminator 1 view .LVU259
 938 0250 A0FB027C 		umull	r7, ip, r0, r2
 102:../DaisySP/Source/Effects/pitchshifter.h ****         }
 939              		.loc 15 102 48 discriminator 1 view .LVU260
 940 0254 A0FB0170 		umull	r7, r0, r0, r1
  99:../DaisySP/Source/Effects/pitchshifter.h ****                          * (del_size_ * 0.5f);
 941              		.loc 15 99 51 discriminator 1 view .LVU261
 942 0258 4FEADC1C 		lsr	ip, ip, #7
 102:../DaisySP/Source/Effects/pitchshifter.h ****         }
 943              		.loc 15 102 48 discriminator 1 view .LVU262
 944 025c C009     		lsrs	r0, r0, #7
  99:../DaisySP/Source/Effects/pitchshifter.h ****                          * (del_size_ * 0.5f);
 945              		.loc 15 99 51 discriminator 1 view .LVU263
 946 025e CCEB0C2C 		rsb	ip, ip, ip, lsl #8
 102:../DaisySP/Source/Effects/pitchshifter.h ****         }
 947              		.loc 15 102 48 discriminator 1 view .LVU264
 948 0262 C0EB0020 		rsb	r0, r0, r0, lsl #8
  99:../DaisySP/Source/Effects/pitchshifter.h ****                          * (del_size_ * 0.5f);
 949              		.loc 15 99 51 discriminator 1 view .LVU265
 950 0266 A2EB0C02 		sub	r2, r2, ip
 102:../DaisySP/Source/Effects/pitchshifter.h ****         }
 951              		.loc 15 102 48 discriminator 1 view .LVU266
 952 026a 091A     		subs	r1, r1, r0
  99:../DaisySP/Source/Effects/pitchshifter.h ****                          * (del_size_ * 0.5f);
 953              		.loc 15 99 34 discriminator 1 view .LVU267
 954 026c 07EE902A 		vmov	s15, r2	@ int
 955 0270 F8EEE77A 		vcvt.f32.s32	s15, s15
  99:../DaisySP/Source/Effects/pitchshifter.h ****                          * (del_size_ * 0.5f);
 956              		.loc 15 99 58 discriminator 1 view .LVU268
 957 0274 87EEA67A 		vdiv.f32	s14, s15, s13
 102:../DaisySP/Source/Effects/pitchshifter.h ****         }
 958              		.loc 15 102 31 discriminator 1 view .LVU269
 959 0278 07EE901A 		vmov	s15, r1	@ int
 960 027c F8EEE77A 		vcvt.f32.s32	s15, s15
 102:../DaisySP/Source/Effects/pitchshifter.h ****         }
 961              		.loc 15 102 55 discriminator 1 view .LVU270
 962 0280 87EEA65A 		vdiv.f32	s10, s15, s13
 100:../DaisySP/Source/Effects/pitchshifter.h ****             mod_coeff_[0]
 963              		.loc 15 100 26 view .LVU271
 964 0284 07EE903A 		vmov	s15, r3	@ int
 965 0288 FBEEEF7A 		vcvt.f32.u32	s15, s15, #1
  99:../DaisySP/Source/Effects/pitchshifter.h ****                          * (del_size_ * 0.5f);
 966              		.loc 15 99 31 discriminator 1 view .LVU272
 967 028c 27EE247A 		vmul.f32	s14, s14, s9
 100:../DaisySP/Source/Effects/pitchshifter.h ****             mod_coeff_[0]
 968              		.loc 15 100 26 view .LVU273
 969 0290 27EE277A 		vmul.f32	s14, s14, s15
  99:../DaisySP/Source/Effects/pitchshifter.h ****                          * (del_size_ * 0.5f);
 970              		.loc 15 99 24 view .LVU274
 971 0294 84ED1A7A 		vstr.32	s14, [r4, #104]
 101:../DaisySP/Source/Effects/pitchshifter.h ****                 = 0.0002f + (((float)(myrand() % 255) / 255.0f) * 0.001f);
 972              		.loc 15 101 13 is_stmt 1 view .LVU275
ARM GAS  /var/folders/v1/156fk8j97zv9pzndh61fy7zm0000gn/T//cc9ANSfA.s 			page 35


 973              	.LBB1098:
 974              	.LBI1091:
  39:../DaisySP/Source/Effects/pitchshifter.h **** {
 975              		.loc 15 39 17 view .LVU276
 976              	.LBB1097:
  41:../DaisySP/Source/Effects/pitchshifter.h ****     seed                 = hash_xs32(seed);
 977              		.loc 15 41 5 view .LVU277
  42:../DaisySP/Source/Effects/pitchshifter.h ****     return seed;
 978              		.loc 15 42 5 view .LVU278
 979              	.LVL34:
 980              	.LBB1096:
 981              	.LBI1093:
  31:../DaisySP/Source/Effects/pitchshifter.h **** {
 982              		.loc 15 31 24 view .LVU279
 983              	.LBB1095:
  33:../DaisySP/Source/Effects/pitchshifter.h ****     x ^= x >> 17;
 984              		.loc 15 33 5 view .LVU280
  34:../DaisySP/Source/Effects/pitchshifter.h ****     x ^= x << 5;
 985              		.loc 15 34 5 view .LVU281
  35:../DaisySP/Source/Effects/pitchshifter.h ****     return x;
 986              		.loc 15 35 5 view .LVU282
  36:../DaisySP/Source/Effects/pitchshifter.h **** }
 987              		.loc 15 36 5 view .LVU283
  36:../DaisySP/Source/Effects/pitchshifter.h **** }
 988              		.loc 15 36 5 is_stmt 0 view .LVU284
 989              	.LBE1095:
 990              	.LBE1096:
  43:../DaisySP/Source/Effects/pitchshifter.h **** }
 991              		.loc 15 43 5 is_stmt 1 view .LVU285
 992              	.LBE1097:
 993              	.LBE1098:
 102:../DaisySP/Source/Effects/pitchshifter.h ****         }
 994              		.loc 15 102 27 is_stmt 0 discriminator 1 view .LVU286
 995 0298 E5EE065A 		vfma.f32	s11, s10, s12
 102:../DaisySP/Source/Effects/pitchshifter.h ****         }
 996              		.loc 15 102 17 discriminator 1 view .LVU287
 997 029c C4ED205A 		vstr.32	s11, [r4, #128]
 998 02a0 CEE6     		b	.L7
 999              	.L16:
 1000 02a2 00BF     		.align	2
 1001              	.L15:
 1002 02a4 30000200 		.word	131120
 1003 02a8 40000200 		.word	131136
 1004 02ac DB0F4940 		.word	1078530011
 1005 02b0 00000000 		.word	0
 1006 02b4 00000000 		.word	_ZZN7daisysp6myrandEvE4seed
 1007 02b8 81808080 		.word	-2139062143
 1008 02bc 00007F43 		.word	1132396544
 1009 02c0 17B75139 		.word	961656599
 1010 02c4 6F12833A 		.word	981668463
 1011              		.cfi_endproc
 1012              	.LFE4632:
 1014              		.section	.text._ZN15ModeFilterDrive4InitEf,"axG",%progbits,_ZN15ModeFilterDrive4InitEf,comdat
 1015              		.align	1
 1016              		.p2align 2,,3
 1017              		.weak	_ZN15ModeFilterDrive4InitEf
 1018              		.syntax unified
ARM GAS  /var/folders/v1/156fk8j97zv9pzndh61fy7zm0000gn/T//cc9ANSfA.s 			page 36


 1019              		.thumb
 1020              		.thumb_func
 1022              	_ZN15ModeFilterDrive4InitEf:
 1023              	.LVL35:
 1024              	.LFB5122:
  10:ModeFilterDrive.h **** public:
  11:ModeFilterDrive.h ****   void Init(float sample_rate) {
 1025              		.loc 13 11 8 is_stmt 1 view -0
 1026              		.cfi_startproc
 1027              		@ args = 0, pretend = 0, frame = 0
 1028              		@ frame_needed = 0, uses_anonymous_args = 0
  12:ModeFilterDrive.h ****     fs_ = sample_rate;
 1029              		.loc 13 12 5 view .LVU289
  11:ModeFilterDrive.h ****     fs_ = sample_rate;
 1030              		.loc 13 11 8 is_stmt 0 view .LVU290
 1031 0000 70B5     		push	{r4, r5, r6, lr}
 1032              		.cfi_def_cfa_offset 16
 1033              		.cfi_offset 4, -16
 1034              		.cfi_offset 5, -12
 1035              		.cfi_offset 6, -8
 1036              		.cfi_offset 14, -4
 1037 0002 0446     		mov	r4, r0
  13:ModeFilterDrive.h **** 
  14:ModeFilterDrive.h ****     // Initialize Filter Stage 1
  15:ModeFilterDrive.h ****     svf_l_.Init(fs_);
  16:ModeFilterDrive.h ****     svf_r_.Init(fs_);
 1038              		.loc 13 16 16 view .LVU291
 1039 0004 04F14C05 		add	r5, r4, #76
  17:ModeFilterDrive.h ****     svf_l_.SetFreq(1000.0f);
  18:ModeFilterDrive.h ****     svf_l_.SetRes(0.5f);
  19:ModeFilterDrive.h ****     svf_l_.SetDrive(0.0f);
  20:ModeFilterDrive.h ****     svf_r_.SetFreq(1000.0f);
  21:ModeFilterDrive.h ****     svf_r_.SetRes(0.5f);
  22:ModeFilterDrive.h ****     svf_r_.SetDrive(0.0f);
  23:ModeFilterDrive.h **** 
  24:ModeFilterDrive.h ****     // Initialize Filter Stage 2 (for 24dB/oct slope)
  25:ModeFilterDrive.h ****     svf_l2_.Init(fs_);
 1040              		.loc 13 25 17 view .LVU292
 1041 0008 04F19806 		add	r6, r4, #152
  11:ModeFilterDrive.h ****     fs_ = sample_rate;
 1042              		.loc 13 11 8 view .LVU293
 1043 000c 2DED048B 		vpush.64	{d8, d9}
 1044              		.cfi_def_cfa_offset 32
 1045              		.cfi_offset 80, -32
 1046              		.cfi_offset 81, -28
 1047              		.cfi_offset 82, -24
 1048              		.cfi_offset 83, -20
  17:ModeFilterDrive.h ****     svf_l_.SetFreq(1000.0f);
 1049              		.loc 13 17 19 view .LVU294
 1050 0010 DFED5E8A 		vldr.32	s17, .L19
  12:ModeFilterDrive.h **** 
 1051              		.loc 13 12 9 view .LVU295
 1052 0014 80ED980A 		vstr.32	s0, [r0, #608]
  15:ModeFilterDrive.h ****     svf_r_.Init(fs_);
 1053              		.loc 13 15 5 is_stmt 1 view .LVU296
  15:ModeFilterDrive.h ****     svf_r_.Init(fs_);
 1054              		.loc 13 15 16 is_stmt 0 view .LVU297
ARM GAS  /var/folders/v1/156fk8j97zv9pzndh61fy7zm0000gn/T//cc9ANSfA.s 			page 37


 1055 0018 FFF7FEFF 		bl	_ZN7daisysp3Svf4InitEf
 1056              	.LVL36:
  16:ModeFilterDrive.h ****     svf_l_.SetFreq(1000.0f);
 1057              		.loc 13 16 5 is_stmt 1 view .LVU298
  16:ModeFilterDrive.h ****     svf_l_.SetFreq(1000.0f);
 1058              		.loc 13 16 16 is_stmt 0 view .LVU299
 1059 001c 2846     		mov	r0, r5
 1060 001e 94ED980A 		vldr.32	s0, [r4, #608]
  19:ModeFilterDrive.h ****     svf_r_.SetFreq(1000.0f);
 1061              		.loc 13 19 20 view .LVU300
 1062 0022 9FED5B8A 		vldr.32	s16, .L19+4
  16:ModeFilterDrive.h ****     svf_l_.SetFreq(1000.0f);
 1063              		.loc 13 16 16 view .LVU301
 1064 0026 FFF7FEFF 		bl	_ZN7daisysp3Svf4InitEf
 1065              	.LVL37:
  17:ModeFilterDrive.h ****     svf_l_.SetRes(0.5f);
 1066              		.loc 13 17 5 is_stmt 1 view .LVU302
  17:ModeFilterDrive.h ****     svf_l_.SetRes(0.5f);
 1067              		.loc 13 17 19 is_stmt 0 view .LVU303
 1068 002a B0EE680A 		vmov.f32	s0, s17
 1069 002e 2046     		mov	r0, r4
 1070 0030 FFF7FEFF 		bl	_ZN7daisysp3Svf7SetFreqEf
 1071              	.LVL38:
  18:ModeFilterDrive.h ****     svf_l_.SetDrive(0.0f);
 1072              		.loc 13 18 5 is_stmt 1 view .LVU304
  18:ModeFilterDrive.h ****     svf_l_.SetDrive(0.0f);
 1073              		.loc 13 18 18 is_stmt 0 view .LVU305
 1074 0034 B6EE000A 		vmov.f32	s0, #5.0e-1
 1075 0038 2046     		mov	r0, r4
  26:ModeFilterDrive.h ****     svf_r2_.Init(fs_);
  27:ModeFilterDrive.h ****     svf_l2_.SetFreq(1000.0f);
  28:ModeFilterDrive.h ****     svf_l2_.SetRes(0.5f);
  29:ModeFilterDrive.h ****     svf_l2_.SetDrive(0.0f);
  30:ModeFilterDrive.h ****     svf_r2_.SetFreq(1000.0f);
  31:ModeFilterDrive.h ****     svf_r2_.SetRes(0.5f);
  32:ModeFilterDrive.h ****     svf_r2_.SetDrive(0.0f);
  33:ModeFilterDrive.h **** 
  34:ModeFilterDrive.h ****     // Initialize Input LPF Stage 1 (2-pole anti-aliasing)
  35:ModeFilterDrive.h ****     input_lpf_l_.Init(fs_);
  36:ModeFilterDrive.h ****     input_lpf_r_.Init(fs_);
  37:ModeFilterDrive.h ****     input_lpf_l_.SetFreq(14000.0f); // Cut ultrasonic noise
 1076              		.loc 13 37 25 view .LVU306
 1077 003a 9FED569A 		vldr.32	s18, .L19+8
  18:ModeFilterDrive.h ****     svf_l_.SetDrive(0.0f);
 1078              		.loc 13 18 18 view .LVU307
 1079 003e FFF7FEFF 		bl	_ZN7daisysp3Svf6SetResEf
 1080              	.LVL39:
  19:ModeFilterDrive.h ****     svf_r_.SetFreq(1000.0f);
 1081              		.loc 13 19 5 is_stmt 1 view .LVU308
  19:ModeFilterDrive.h ****     svf_r_.SetFreq(1000.0f);
 1082              		.loc 13 19 20 is_stmt 0 view .LVU309
 1083 0042 B0EE480A 		vmov.f32	s0, s16
 1084 0046 2046     		mov	r0, r4
 1085 0048 FFF7FEFF 		bl	_ZN7daisysp3Svf8SetDriveEf
 1086              	.LVL40:
  20:ModeFilterDrive.h ****     svf_r_.SetRes(0.5f);
 1087              		.loc 13 20 5 is_stmt 1 view .LVU310
ARM GAS  /var/folders/v1/156fk8j97zv9pzndh61fy7zm0000gn/T//cc9ANSfA.s 			page 38


  20:ModeFilterDrive.h ****     svf_r_.SetRes(0.5f);
 1088              		.loc 13 20 19 is_stmt 0 view .LVU311
 1089 004c B0EE680A 		vmov.f32	s0, s17
 1090 0050 2846     		mov	r0, r5
 1091 0052 FFF7FEFF 		bl	_ZN7daisysp3Svf7SetFreqEf
 1092              	.LVL41:
  21:ModeFilterDrive.h ****     svf_r_.SetDrive(0.0f);
 1093              		.loc 13 21 5 is_stmt 1 view .LVU312
  21:ModeFilterDrive.h ****     svf_r_.SetDrive(0.0f);
 1094              		.loc 13 21 18 is_stmt 0 view .LVU313
 1095 0056 2846     		mov	r0, r5
 1096 0058 B6EE000A 		vmov.f32	s0, #5.0e-1
 1097 005c FFF7FEFF 		bl	_ZN7daisysp3Svf6SetResEf
 1098              	.LVL42:
  22:ModeFilterDrive.h **** 
 1099              		.loc 13 22 5 is_stmt 1 view .LVU314
  22:ModeFilterDrive.h **** 
 1100              		.loc 13 22 20 is_stmt 0 view .LVU315
 1101 0060 B0EE480A 		vmov.f32	s0, s16
 1102 0064 2846     		mov	r0, r5
  26:ModeFilterDrive.h ****     svf_l2_.SetFreq(1000.0f);
 1103              		.loc 13 26 17 view .LVU316
 1104 0066 04F1E405 		add	r5, r4, #228
  22:ModeFilterDrive.h **** 
 1105              		.loc 13 22 20 view .LVU317
 1106 006a FFF7FEFF 		bl	_ZN7daisysp3Svf8SetDriveEf
 1107              	.LVL43:
  25:ModeFilterDrive.h ****     svf_r2_.Init(fs_);
 1108              		.loc 13 25 5 is_stmt 1 view .LVU318
  25:ModeFilterDrive.h ****     svf_r2_.Init(fs_);
 1109              		.loc 13 25 17 is_stmt 0 view .LVU319
 1110 006e 3046     		mov	r0, r6
 1111 0070 94ED980A 		vldr.32	s0, [r4, #608]
 1112 0074 FFF7FEFF 		bl	_ZN7daisysp3Svf4InitEf
 1113              	.LVL44:
  26:ModeFilterDrive.h ****     svf_l2_.SetFreq(1000.0f);
 1114              		.loc 13 26 5 is_stmt 1 view .LVU320
  26:ModeFilterDrive.h ****     svf_l2_.SetFreq(1000.0f);
 1115              		.loc 13 26 17 is_stmt 0 view .LVU321
 1116 0078 2846     		mov	r0, r5
 1117 007a 94ED980A 		vldr.32	s0, [r4, #608]
 1118 007e FFF7FEFF 		bl	_ZN7daisysp3Svf4InitEf
 1119              	.LVL45:
  27:ModeFilterDrive.h ****     svf_l2_.SetRes(0.5f);
 1120              		.loc 13 27 5 is_stmt 1 view .LVU322
  27:ModeFilterDrive.h ****     svf_l2_.SetRes(0.5f);
 1121              		.loc 13 27 20 is_stmt 0 view .LVU323
 1122 0082 B0EE680A 		vmov.f32	s0, s17
 1123 0086 3046     		mov	r0, r6
 1124 0088 FFF7FEFF 		bl	_ZN7daisysp3Svf7SetFreqEf
 1125              	.LVL46:
  28:ModeFilterDrive.h ****     svf_l2_.SetDrive(0.0f);
 1126              		.loc 13 28 5 is_stmt 1 view .LVU324
  28:ModeFilterDrive.h ****     svf_l2_.SetDrive(0.0f);
 1127              		.loc 13 28 19 is_stmt 0 view .LVU325
 1128 008c 3046     		mov	r0, r6
 1129 008e B6EE000A 		vmov.f32	s0, #5.0e-1
ARM GAS  /var/folders/v1/156fk8j97zv9pzndh61fy7zm0000gn/T//cc9ANSfA.s 			page 39


 1130 0092 FFF7FEFF 		bl	_ZN7daisysp3Svf6SetResEf
 1131              	.LVL47:
  29:ModeFilterDrive.h ****     svf_r2_.SetFreq(1000.0f);
 1132              		.loc 13 29 5 is_stmt 1 view .LVU326
  29:ModeFilterDrive.h ****     svf_r2_.SetFreq(1000.0f);
 1133              		.loc 13 29 21 is_stmt 0 view .LVU327
 1134 0096 B0EE480A 		vmov.f32	s0, s16
 1135 009a 3046     		mov	r0, r6
  35:ModeFilterDrive.h ****     input_lpf_r_.Init(fs_);
 1136              		.loc 13 35 22 view .LVU328
 1137 009c 04F59876 		add	r6, r4, #304
  29:ModeFilterDrive.h ****     svf_r2_.SetFreq(1000.0f);
 1138              		.loc 13 29 21 view .LVU329
 1139 00a0 FFF7FEFF 		bl	_ZN7daisysp3Svf8SetDriveEf
 1140              	.LVL48:
  30:ModeFilterDrive.h ****     svf_r2_.SetRes(0.5f);
 1141              		.loc 13 30 5 is_stmt 1 view .LVU330
  30:ModeFilterDrive.h ****     svf_r2_.SetRes(0.5f);
 1142              		.loc 13 30 20 is_stmt 0 view .LVU331
 1143 00a4 B0EE680A 		vmov.f32	s0, s17
 1144 00a8 2846     		mov	r0, r5
 1145 00aa FFF7FEFF 		bl	_ZN7daisysp3Svf7SetFreqEf
 1146              	.LVL49:
  31:ModeFilterDrive.h ****     svf_r2_.SetDrive(0.0f);
 1147              		.loc 13 31 5 is_stmt 1 view .LVU332
  31:ModeFilterDrive.h ****     svf_r2_.SetDrive(0.0f);
 1148              		.loc 13 31 19 is_stmt 0 view .LVU333
 1149 00ae 2846     		mov	r0, r5
 1150 00b0 B6EE000A 		vmov.f32	s0, #5.0e-1
 1151 00b4 FFF7FEFF 		bl	_ZN7daisysp3Svf6SetResEf
 1152              	.LVL50:
  32:ModeFilterDrive.h **** 
 1153              		.loc 13 32 5 is_stmt 1 view .LVU334
  32:ModeFilterDrive.h **** 
 1154              		.loc 13 32 21 is_stmt 0 view .LVU335
 1155 00b8 B0EE480A 		vmov.f32	s0, s16
 1156 00bc 2846     		mov	r0, r5
  36:ModeFilterDrive.h ****     input_lpf_l_.SetFreq(14000.0f); // Cut ultrasonic noise
 1157              		.loc 13 36 22 view .LVU336
 1158 00be 04F5BE75 		add	r5, r4, #380
  32:ModeFilterDrive.h **** 
 1159              		.loc 13 32 21 view .LVU337
 1160 00c2 FFF7FEFF 		bl	_ZN7daisysp3Svf8SetDriveEf
 1161              	.LVL51:
  35:ModeFilterDrive.h ****     input_lpf_r_.Init(fs_);
 1162              		.loc 13 35 5 is_stmt 1 view .LVU338
  35:ModeFilterDrive.h ****     input_lpf_r_.Init(fs_);
 1163              		.loc 13 35 22 is_stmt 0 view .LVU339
 1164 00c6 3046     		mov	r0, r6
 1165 00c8 94ED980A 		vldr.32	s0, [r4, #608]
 1166 00cc FFF7FEFF 		bl	_ZN7daisysp3Svf4InitEf
 1167              	.LVL52:
  36:ModeFilterDrive.h ****     input_lpf_l_.SetFreq(14000.0f); // Cut ultrasonic noise
 1168              		.loc 13 36 5 is_stmt 1 view .LVU340
  36:ModeFilterDrive.h ****     input_lpf_l_.SetFreq(14000.0f); // Cut ultrasonic noise
 1169              		.loc 13 36 22 is_stmt 0 view .LVU341
 1170 00d0 2846     		mov	r0, r5
ARM GAS  /var/folders/v1/156fk8j97zv9pzndh61fy7zm0000gn/T//cc9ANSfA.s 			page 40


 1171 00d2 94ED980A 		vldr.32	s0, [r4, #608]
 1172 00d6 FFF7FEFF 		bl	_ZN7daisysp3Svf4InitEf
 1173              	.LVL53:
 1174              		.loc 13 37 5 is_stmt 1 view .LVU342
 1175              		.loc 13 37 25 is_stmt 0 view .LVU343
 1176 00da B0EE490A 		vmov.f32	s0, s18
 1177 00de 3046     		mov	r0, r6
 1178 00e0 FFF7FEFF 		bl	_ZN7daisysp3Svf7SetFreqEf
 1179              	.LVL54:
  38:ModeFilterDrive.h ****     input_lpf_l_.SetRes(0.0f);
 1180              		.loc 13 38 5 is_stmt 1 view .LVU344
 1181              		.loc 13 38 24 is_stmt 0 view .LVU345
 1182 00e4 B0EE480A 		vmov.f32	s0, s16
 1183 00e8 3046     		mov	r0, r6
  39:ModeFilterDrive.h ****     input_lpf_r_.SetFreq(14000.0f);
  40:ModeFilterDrive.h ****     input_lpf_r_.SetRes(0.0f);
  41:ModeFilterDrive.h **** 
  42:ModeFilterDrive.h ****     // Initialize Input LPF Stage 2 (2-pole for 24dB/oct slope)
  43:ModeFilterDrive.h ****     input_lpf_l2_.Init(fs_);
 1184              		.loc 13 43 23 view .LVU346
 1185 00ea 04F5E476 		add	r6, r4, #456
  38:ModeFilterDrive.h ****     input_lpf_l_.SetRes(0.0f);
 1186              		.loc 13 38 24 view .LVU347
 1187 00ee FFF7FEFF 		bl	_ZN7daisysp3Svf6SetResEf
 1188              	.LVL55:
  39:ModeFilterDrive.h ****     input_lpf_r_.SetFreq(14000.0f);
 1189              		.loc 13 39 5 is_stmt 1 view .LVU348
  39:ModeFilterDrive.h ****     input_lpf_r_.SetFreq(14000.0f);
 1190              		.loc 13 39 25 is_stmt 0 view .LVU349
 1191 00f2 B0EE490A 		vmov.f32	s0, s18
 1192 00f6 2846     		mov	r0, r5
 1193 00f8 FFF7FEFF 		bl	_ZN7daisysp3Svf7SetFreqEf
 1194              	.LVL56:
  40:ModeFilterDrive.h **** 
 1195              		.loc 13 40 5 is_stmt 1 view .LVU350
  40:ModeFilterDrive.h **** 
 1196              		.loc 13 40 24 is_stmt 0 view .LVU351
 1197 00fc B0EE480A 		vmov.f32	s0, s16
 1198 0100 2846     		mov	r0, r5
  44:ModeFilterDrive.h ****     input_lpf_r2_.Init(fs_);
 1199              		.loc 13 44 23 view .LVU352
 1200 0102 04F50575 		add	r5, r4, #532
  40:ModeFilterDrive.h **** 
 1201              		.loc 13 40 24 view .LVU353
 1202 0106 FFF7FEFF 		bl	_ZN7daisysp3Svf6SetResEf
 1203              	.LVL57:
  43:ModeFilterDrive.h ****     input_lpf_r2_.Init(fs_);
 1204              		.loc 13 43 5 is_stmt 1 view .LVU354
  43:ModeFilterDrive.h ****     input_lpf_r2_.Init(fs_);
 1205              		.loc 13 43 23 is_stmt 0 view .LVU355
 1206 010a 94ED980A 		vldr.32	s0, [r4, #608]
 1207 010e 3046     		mov	r0, r6
 1208 0110 FFF7FEFF 		bl	_ZN7daisysp3Svf4InitEf
 1209              	.LVL58:
 1210              		.loc 13 44 5 is_stmt 1 view .LVU356
 1211              		.loc 13 44 23 is_stmt 0 view .LVU357
 1212 0114 94ED980A 		vldr.32	s0, [r4, #608]
ARM GAS  /var/folders/v1/156fk8j97zv9pzndh61fy7zm0000gn/T//cc9ANSfA.s 			page 41


 1213 0118 2846     		mov	r0, r5
 1214 011a FFF7FEFF 		bl	_ZN7daisysp3Svf4InitEf
 1215              	.LVL59:
  45:ModeFilterDrive.h ****     input_lpf_l2_.SetFreq(14000.0f);
 1216              		.loc 13 45 5 is_stmt 1 view .LVU358
 1217              		.loc 13 45 26 is_stmt 0 view .LVU359
 1218 011e B0EE490A 		vmov.f32	s0, s18
 1219 0122 3046     		mov	r0, r6
 1220 0124 FFF7FEFF 		bl	_ZN7daisysp3Svf7SetFreqEf
 1221              	.LVL60:
  46:ModeFilterDrive.h ****     input_lpf_l2_.SetRes(0.0f);
 1222              		.loc 13 46 5 is_stmt 1 view .LVU360
 1223              		.loc 13 46 25 is_stmt 0 view .LVU361
 1224 0128 B0EE480A 		vmov.f32	s0, s16
 1225 012c 3046     		mov	r0, r6
 1226 012e FFF7FEFF 		bl	_ZN7daisysp3Svf6SetResEf
 1227              	.LVL61:
  47:ModeFilterDrive.h ****     input_lpf_r2_.SetFreq(14000.0f);
 1228              		.loc 13 47 5 is_stmt 1 view .LVU362
 1229              		.loc 13 47 26 is_stmt 0 view .LVU363
 1230 0132 B0EE490A 		vmov.f32	s0, s18
 1231 0136 2846     		mov	r0, r5
 1232 0138 FFF7FEFF 		bl	_ZN7daisysp3Svf7SetFreqEf
 1233              	.LVL62:
  48:ModeFilterDrive.h ****     input_lpf_r2_.SetRes(0.0f);
 1234              		.loc 13 48 5 is_stmt 1 view .LVU364
 1235              		.loc 13 48 25 is_stmt 0 view .LVU365
 1236 013c B0EE480A 		vmov.f32	s0, s16
 1237 0140 2846     		mov	r0, r5
 1238 0142 FFF7FEFF 		bl	_ZN7daisysp3Svf6SetResEf
 1239              	.LVL63:
  49:ModeFilterDrive.h **** 
  50:ModeFilterDrive.h ****     // Initialize Drive
  51:ModeFilterDrive.h ****     drive_amount_ = 0.0f;
 1240              		.loc 13 51 5 is_stmt 1 view .LVU366
  52:ModeFilterDrive.h ****     freq_ = 1000.0f;
  53:ModeFilterDrive.h ****     res_ = 0.0f;
  54:ModeFilterDrive.h ****     drive_ = 0.0f;
  55:ModeFilterDrive.h **** 
  56:ModeFilterDrive.h ****     // Initialize Noise Gate
  57:ModeFilterDrive.h ****     env_follower_l_ = 0.0f;
  58:ModeFilterDrive.h ****     env_follower_r_ = 0.0f;
  59:ModeFilterDrive.h **** 
  60:ModeFilterDrive.h ****     // Initialize Oversampling History (4 samples for Hermite)
  61:ModeFilterDrive.h ****     for (int i = 0; i < 4; i++) {
  62:ModeFilterDrive.h ****       hist_l_[i] = 0.0f;
  63:ModeFilterDrive.h ****       hist_r_[i] = 0.0f;
  64:ModeFilterDrive.h ****     }
  65:ModeFilterDrive.h **** 
  66:ModeFilterDrive.h ****     // Initialize stereo spread cache
  67:ModeFilterDrive.h ****     stereo_spread_ = 1.0f;
 1241              		.loc 13 67 20 is_stmt 0 view .LVU367
 1242 0146 4FF07E53 		mov	r3, #1065353216
  51:ModeFilterDrive.h ****     freq_ = 1000.0f;
 1243              		.loc 13 51 19 view .LVU368
 1244 014a 84ED998A 		vstr.32	s16, [r4, #612]
  52:ModeFilterDrive.h ****     freq_ = 1000.0f;
ARM GAS  /var/folders/v1/156fk8j97zv9pzndh61fy7zm0000gn/T//cc9ANSfA.s 			page 42


 1245              		.loc 13 52 5 is_stmt 1 view .LVU369
  52:ModeFilterDrive.h ****     freq_ = 1000.0f;
 1246              		.loc 13 52 11 is_stmt 0 view .LVU370
 1247 014e C4ED9A8A 		vstr.32	s17, [r4, #616]
  53:ModeFilterDrive.h ****     drive_ = 0.0f;
 1248              		.loc 13 53 5 is_stmt 1 view .LVU371
  53:ModeFilterDrive.h ****     drive_ = 0.0f;
 1249              		.loc 13 53 10 is_stmt 0 view .LVU372
 1250 0152 84ED9B8A 		vstr.32	s16, [r4, #620]
  54:ModeFilterDrive.h **** 
 1251              		.loc 13 54 5 is_stmt 1 view .LVU373
  54:ModeFilterDrive.h **** 
 1252              		.loc 13 54 12 is_stmt 0 view .LVU374
 1253 0156 84ED9C8A 		vstr.32	s16, [r4, #624]
  57:ModeFilterDrive.h ****     env_follower_r_ = 0.0f;
 1254              		.loc 13 57 5 is_stmt 1 view .LVU375
  57:ModeFilterDrive.h ****     env_follower_r_ = 0.0f;
 1255              		.loc 13 57 21 is_stmt 0 view .LVU376
 1256 015a 84ED9D8A 		vstr.32	s16, [r4, #628]
  58:ModeFilterDrive.h **** 
 1257              		.loc 13 58 5 is_stmt 1 view .LVU377
  58:ModeFilterDrive.h **** 
 1258              		.loc 13 58 21 is_stmt 0 view .LVU378
 1259 015e 84ED9E8A 		vstr.32	s16, [r4, #632]
  61:ModeFilterDrive.h ****       hist_l_[i] = 0.0f;
 1260              		.loc 13 61 5 is_stmt 1 view .LVU379
 1261              	.LVL64:
 1262              	.LBB1099:
  61:ModeFilterDrive.h ****       hist_l_[i] = 0.0f;
 1263              		.loc 13 61 23 discriminator 1 view .LVU380
  62:ModeFilterDrive.h ****       hist_r_[i] = 0.0f;
 1264              		.loc 13 62 7 view .LVU381
  62:ModeFilterDrive.h ****       hist_r_[i] = 0.0f;
 1265              		.loc 13 62 18 is_stmt 0 view .LVU382
 1266 0162 84ED9F8A 		vstr.32	s16, [r4, #636]
  63:ModeFilterDrive.h ****     }
 1267              		.loc 13 63 7 is_stmt 1 view .LVU383
  63:ModeFilterDrive.h ****     }
 1268              		.loc 13 63 18 is_stmt 0 view .LVU384
 1269 0166 84EDA38A 		vstr.32	s16, [r4, #652]
  61:ModeFilterDrive.h ****       hist_l_[i] = 0.0f;
 1270              		.loc 13 61 5 is_stmt 1 discriminator 3 view .LVU385
 1271              	.LVL65:
  61:ModeFilterDrive.h ****       hist_l_[i] = 0.0f;
 1272              		.loc 13 61 23 discriminator 1 view .LVU386
  62:ModeFilterDrive.h ****       hist_r_[i] = 0.0f;
 1273              		.loc 13 62 7 view .LVU387
  62:ModeFilterDrive.h ****       hist_r_[i] = 0.0f;
 1274              		.loc 13 62 18 is_stmt 0 view .LVU388
 1275 016a 84EDA08A 		vstr.32	s16, [r4, #640]
  63:ModeFilterDrive.h ****     }
 1276              		.loc 13 63 7 is_stmt 1 view .LVU389
  63:ModeFilterDrive.h ****     }
 1277              		.loc 13 63 18 is_stmt 0 view .LVU390
 1278 016e 84EDA48A 		vstr.32	s16, [r4, #656]
  61:ModeFilterDrive.h ****       hist_l_[i] = 0.0f;
 1279              		.loc 13 61 5 is_stmt 1 discriminator 3 view .LVU391
ARM GAS  /var/folders/v1/156fk8j97zv9pzndh61fy7zm0000gn/T//cc9ANSfA.s 			page 43


 1280              	.LVL66:
  61:ModeFilterDrive.h ****       hist_l_[i] = 0.0f;
 1281              		.loc 13 61 23 discriminator 1 view .LVU392
  62:ModeFilterDrive.h ****       hist_r_[i] = 0.0f;
 1282              		.loc 13 62 7 view .LVU393
  62:ModeFilterDrive.h ****       hist_r_[i] = 0.0f;
 1283              		.loc 13 62 18 is_stmt 0 view .LVU394
 1284 0172 84EDA18A 		vstr.32	s16, [r4, #644]
  63:ModeFilterDrive.h ****     }
 1285              		.loc 13 63 7 is_stmt 1 view .LVU395
  63:ModeFilterDrive.h ****     }
 1286              		.loc 13 63 18 is_stmt 0 view .LVU396
 1287 0176 84EDA58A 		vstr.32	s16, [r4, #660]
  61:ModeFilterDrive.h ****       hist_l_[i] = 0.0f;
 1288              		.loc 13 61 5 is_stmt 1 discriminator 3 view .LVU397
 1289              	.LVL67:
  61:ModeFilterDrive.h ****       hist_l_[i] = 0.0f;
 1290              		.loc 13 61 23 discriminator 1 view .LVU398
  62:ModeFilterDrive.h ****       hist_r_[i] = 0.0f;
 1291              		.loc 13 62 7 view .LVU399
  62:ModeFilterDrive.h ****       hist_r_[i] = 0.0f;
 1292              		.loc 13 62 18 is_stmt 0 view .LVU400
 1293 017a 84EDA28A 		vstr.32	s16, [r4, #648]
  63:ModeFilterDrive.h ****     }
 1294              		.loc 13 63 7 is_stmt 1 view .LVU401
  63:ModeFilterDrive.h ****     }
 1295              		.loc 13 63 18 is_stmt 0 view .LVU402
 1296 017e 84EDA68A 		vstr.32	s16, [r4, #664]
  61:ModeFilterDrive.h ****       hist_l_[i] = 0.0f;
 1297              		.loc 13 61 5 is_stmt 1 discriminator 3 view .LVU403
 1298              	.LVL68:
  61:ModeFilterDrive.h ****       hist_l_[i] = 0.0f;
 1299              		.loc 13 61 23 discriminator 1 view .LVU404
 1300              	.LBE1099:
 1301              		.loc 13 67 5 view .LVU405
 1302              		.loc 13 67 20 is_stmt 0 view .LVU406
 1303 0182 C4F89C32 		str	r3, [r4, #668]	@ float
  68:ModeFilterDrive.h ****   }
 1304              		.loc 13 68 3 view .LVU407
 1305 0186 BDEC048B 		vldm	sp!, {d8-d9}
 1306              		.cfi_restore 82
 1307              		.cfi_restore 83
 1308              		.cfi_restore 80
 1309              		.cfi_restore 81
 1310              		.cfi_def_cfa_offset 16
 1311 018a 70BD     		pop	{r4, r5, r6, pc}
 1312              	.LVL69:
 1313              	.L20:
 1314              		.loc 13 68 3 view .LVU408
 1315              		.align	2
 1316              	.L19:
 1317 018c 00007A44 		.word	1148846080
 1318 0190 00000000 		.word	0
 1319 0194 00C05A46 		.word	1180352512
 1320              		.cfi_endproc
 1321              	.LFE5122:
 1323              		.section	.text._ZN15ModeFilterDrive7ProcessEffPfS0_,"axG",%progbits,_ZN15ModeFilterDrive7ProcessEf
ARM GAS  /var/folders/v1/156fk8j97zv9pzndh61fy7zm0000gn/T//cc9ANSfA.s 			page 44


 1324              		.align	1
 1325              		.p2align 2,,3
 1326              		.weak	_ZN15ModeFilterDrive7ProcessEffPfS0_
 1327              		.syntax unified
 1328              		.thumb
 1329              		.thumb_func
 1331              	_ZN15ModeFilterDrive7ProcessEffPfS0_:
 1332              	.LVL70:
 1333              	.LFB5123:
  69:ModeFilterDrive.h **** 
  70:ModeFilterDrive.h ****   void Process(float in_l, float in_r, float *out_l, float *out_r) {
 1334              		.loc 13 70 8 is_stmt 1 view -0
 1335              		.cfi_startproc
 1336              		@ args = 0, pretend = 0, frame = 0
 1337              		@ frame_needed = 0, uses_anonymous_args = 0
  71:ModeFilterDrive.h ****     // 0. Noise Gate (Downward Expander)
  72:ModeFilterDrive.h ****     // Simple envelope follower
  73:ModeFilterDrive.h ****     env_follower_l_ =
 1338              		.loc 13 73 5 view .LVU410
  74:ModeFilterDrive.h ****         kGateAttack * env_follower_l_ + kGateRelease * fabsf(in_l);
 1339              		.loc 13 74 61 is_stmt 0 view .LVU411
 1340 0000 B0EEC07A 		vabs.f32	s14, s0
 1341              		.loc 13 74 54 view .LVU412
 1342 0004 9FEDF06A 		vldr.32	s12, .L205
 1343              		.loc 13 74 39 view .LVU413
 1344 0008 DFEDF06A 		vldr.32	s13, .L205+4
  75:ModeFilterDrive.h ****     env_follower_r_ =
  76:ModeFilterDrive.h ****         kGateAttack * env_follower_r_ + kGateRelease * fabsf(in_r);
 1345              		.loc 13 76 61 view .LVU414
 1346 000c F0EEE07A 		vabs.f32	s15, s1
  74:ModeFilterDrive.h ****         kGateAttack * env_follower_l_ + kGateRelease * fabsf(in_l);
 1347              		.loc 13 74 39 view .LVU415
 1348 0010 90ED9D5A 		vldr.32	s10, [r0, #628]
  74:ModeFilterDrive.h ****         kGateAttack * env_follower_l_ + kGateRelease * fabsf(in_l);
 1349              		.loc 13 74 54 view .LVU416
 1350 0014 27EE067A 		vmul.f32	s14, s14, s12
 1351              		.loc 13 76 39 view .LVU417
 1352 0018 D0ED9E5A 		vldr.32	s11, [r0, #632]
 1353              		.loc 13 76 54 view .LVU418
 1354 001c 67EE867A 		vmul.f32	s15, s15, s12
  77:ModeFilterDrive.h **** 
  78:ModeFilterDrive.h ****     float gate_gain_l = 1.0f;
  79:ModeFilterDrive.h ****     float gate_gain_r = 1.0f;
  80:ModeFilterDrive.h **** 
  81:ModeFilterDrive.h ****     if (env_follower_l_ < kGateThreshold) {
 1355              		.loc 13 81 5 view .LVU419
 1356 0020 9FEDEB6A 		vldr.32	s12, .L205+8
  74:ModeFilterDrive.h ****     env_follower_r_ =
 1357              		.loc 13 74 39 view .LVU420
 1358 0024 A5EE267A 		vfma.f32	s14, s10, s13
  76:ModeFilterDrive.h **** 
 1359              		.loc 13 76 39 view .LVU421
 1360 0028 E5EEA67A 		vfma.f32	s15, s11, s13
  70:ModeFilterDrive.h ****     // 0. Noise Gate (Downward Expander)
 1361              		.loc 13 70 8 view .LVU422
 1362 002c 2DE9F843 		push	{r3, r4, r5, r6, r7, r8, r9, lr}
 1363              		.cfi_def_cfa_offset 32
ARM GAS  /var/folders/v1/156fk8j97zv9pzndh61fy7zm0000gn/T//cc9ANSfA.s 			page 45


 1364              		.cfi_offset 3, -32
 1365              		.cfi_offset 4, -28
 1366              		.cfi_offset 5, -24
 1367              		.cfi_offset 6, -20
 1368              		.cfi_offset 7, -16
 1369              		.cfi_offset 8, -12
 1370              		.cfi_offset 9, -8
 1371              		.cfi_offset 14, -4
 1372 0030 0446     		mov	r4, r0
 1373 0032 8946     		mov	r9, r1
 1374              		.loc 13 81 5 view .LVU423
 1375 0034 B4EEC67A 		vcmpe.f32	s14, s12
  70:ModeFilterDrive.h ****     // 0. Noise Gate (Downward Expander)
 1376              		.loc 13 70 8 view .LVU424
 1377 0038 9046     		mov	r8, r2
 1378 003a 2DED0E8B 		vpush.64	{d8, d9, d10, d11, d12, d13, d14}
 1379              		.cfi_def_cfa_offset 88
 1380              		.cfi_offset 80, -88
 1381              		.cfi_offset 81, -84
 1382              		.cfi_offset 82, -80
 1383              		.cfi_offset 83, -76
 1384              		.cfi_offset 84, -72
 1385              		.cfi_offset 85, -68
 1386              		.cfi_offset 86, -64
 1387              		.cfi_offset 87, -60
 1388              		.cfi_offset 88, -56
 1389              		.cfi_offset 89, -52
 1390              		.cfi_offset 90, -48
 1391              		.cfi_offset 91, -44
 1392              		.cfi_offset 92, -40
 1393              		.cfi_offset 93, -36
 1394              		.loc 13 81 5 view .LVU425
 1395 003e F1EE10FA 		vmrs	APSR_nzcv, FPSCR
  73:ModeFilterDrive.h ****         kGateAttack * env_follower_l_ + kGateRelease * fabsf(in_l);
 1396              		.loc 13 73 21 view .LVU426
 1397 0042 80ED9D7A 		vstr.32	s14, [r0, #628]
  75:ModeFilterDrive.h ****         kGateAttack * env_follower_r_ + kGateRelease * fabsf(in_r);
 1398              		.loc 13 75 5 is_stmt 1 view .LVU427
  70:ModeFilterDrive.h ****     // 0. Noise Gate (Downward Expander)
 1399              		.loc 13 70 8 is_stmt 0 view .LVU428
 1400 0046 F0EE608A 		vmov.f32	s17, s1
  75:ModeFilterDrive.h ****         kGateAttack * env_follower_r_ + kGateRelease * fabsf(in_r);
 1401              		.loc 13 75 21 view .LVU429
 1402 004a C0ED9E7A 		vstr.32	s15, [r0, #632]
  78:ModeFilterDrive.h ****     float gate_gain_r = 1.0f;
 1403              		.loc 13 78 5 is_stmt 1 view .LVU430
 1404              	.LVL71:
  79:ModeFilterDrive.h **** 
 1405              		.loc 13 79 5 view .LVU431
 1406              		.loc 13 81 5 view .LVU432
 1407 004e 40F16481 		bpl	.L154
  82:ModeFilterDrive.h ****       gate_gain_l = env_follower_l_ / kGateThreshold; // Soft knee expansion
 1408              		.loc 13 82 7 view .LVU433
 1409              		.loc 13 82 19 is_stmt 0 view .LVU434
 1410 0052 87EE069A 		vdiv.f32	s18, s14, s12
 1411              	.LVL72:
  83:ModeFilterDrive.h ****       gate_gain_l *= gate_gain_l; // Square it for steeper curve
ARM GAS  /var/folders/v1/156fk8j97zv9pzndh61fy7zm0000gn/T//cc9ANSfA.s 			page 46


 1412              		.loc 13 83 7 is_stmt 1 view .LVU435
  84:ModeFilterDrive.h ****     }
  85:ModeFilterDrive.h ****     if (env_follower_r_ < kGateThreshold) {
 1413              		.loc 13 85 5 is_stmt 0 view .LVU436
 1414 0056 9FEDDE7A 		vldr.32	s14, .L205+8
 1415 005a F4EEC77A 		vcmpe.f32	s15, s14
 1416 005e F1EE10FA 		vmrs	APSR_nzcv, FPSCR
  83:ModeFilterDrive.h ****       gate_gain_l *= gate_gain_l; // Square it for steeper curve
 1417              		.loc 13 83 19 view .LVU437
 1418 0062 29EE099A 		vmul.f32	s18, s18, s18
 1419              	.LVL73:
 1420              		.loc 13 85 5 is_stmt 1 view .LVU438
 1421 0066 40F16281 		bpl	.L155
 1422              	.L187:
  86:ModeFilterDrive.h ****       gate_gain_r = env_follower_r_ / kGateThreshold;
 1423              		.loc 13 86 7 view .LVU439
 1424              		.loc 13 86 19 is_stmt 0 view .LVU440
 1425 006a 87EE878A 		vdiv.f32	s16, s15, s14
 1426              	.LVL74:
  87:ModeFilterDrive.h ****       gate_gain_r *= gate_gain_r;
 1427              		.loc 13 87 7 is_stmt 1 view .LVU441
 1428              		.loc 13 87 19 is_stmt 0 view .LVU442
 1429 006e 28EE088A 		vmul.f32	s16, s16, s16
 1430              	.LVL75:
 1431              	.L24:
  88:ModeFilterDrive.h ****     }
  89:ModeFilterDrive.h **** 
  90:ModeFilterDrive.h ****     // 0.5 Input LPF (2-pole anti-aliasing before drive)
  91:ModeFilterDrive.h ****     input_lpf_l_.Process(in_l);
 1432              		.loc 13 91 5 is_stmt 1 view .LVU443
 1433              		.loc 13 91 25 is_stmt 0 view .LVU444
 1434 0072 04F59870 		add	r0, r4, #304
 1435              	.LVL76:
 1436              		.loc 13 91 25 view .LVU445
 1437 0076 FFF7FEFF 		bl	_ZN7daisysp3Svf7ProcessEf
 1438              	.LVL77:
  92:ModeFilterDrive.h ****     input_lpf_r_.Process(in_r);
 1439              		.loc 13 92 5 is_stmt 1 view .LVU446
 1440              		.loc 13 92 25 is_stmt 0 view .LVU447
 1441 007a B0EE680A 		vmov.f32	s0, s17
 1442 007e 04F5BE70 		add	r0, r4, #380
 1443 0082 FFF7FEFF 		bl	_ZN7daisysp3Svf7ProcessEf
 1444              	.LVL78:
  93:ModeFilterDrive.h ****     float stage1_l = input_lpf_l_.Low() * gate_gain_l;
 1445              		.loc 13 93 5 is_stmt 1 view .LVU448
 1446              	.LBB1210:
 1447              	.LBI1210:
  31:../DaisySP/Source/Filters/svf.h ****     /** Initializes the filter
  32:../DaisySP/Source/Filters/svf.h ****         float sample_rate - sample rate of the audio engine being run, and the frequency that the P
  33:../DaisySP/Source/Filters/svf.h ****     */
  34:../DaisySP/Source/Filters/svf.h ****     void Init(float sample_rate);
  35:../DaisySP/Source/Filters/svf.h **** 
  36:../DaisySP/Source/Filters/svf.h **** 
  37:../DaisySP/Source/Filters/svf.h ****     /** 
  38:../DaisySP/Source/Filters/svf.h ****         Process the input signal, updating all of the outputs.
  39:../DaisySP/Source/Filters/svf.h ****     */
  40:../DaisySP/Source/Filters/svf.h ****     void Process(float in);
ARM GAS  /var/folders/v1/156fk8j97zv9pzndh61fy7zm0000gn/T//cc9ANSfA.s 			page 47


  41:../DaisySP/Source/Filters/svf.h **** 
  42:../DaisySP/Source/Filters/svf.h **** 
  43:../DaisySP/Source/Filters/svf.h ****     /** sets the frequency of the cutoff frequency. 
  44:../DaisySP/Source/Filters/svf.h ****         f must be between 0.0 and sample_rate / 3
  45:../DaisySP/Source/Filters/svf.h ****     */
  46:../DaisySP/Source/Filters/svf.h ****     void SetFreq(float f);
  47:../DaisySP/Source/Filters/svf.h **** 
  48:../DaisySP/Source/Filters/svf.h ****     /** sets the resonance of the filter.
  49:../DaisySP/Source/Filters/svf.h ****         Must be between 0.0 and 1.0 to ensure stability.
  50:../DaisySP/Source/Filters/svf.h ****     */
  51:../DaisySP/Source/Filters/svf.h ****     void SetRes(float r);
  52:../DaisySP/Source/Filters/svf.h **** 
  53:../DaisySP/Source/Filters/svf.h ****     /** sets the drive of the filter 
  54:../DaisySP/Source/Filters/svf.h ****         affects the response of the resonance of the filter
  55:../DaisySP/Source/Filters/svf.h ****     */
  56:../DaisySP/Source/Filters/svf.h ****     void SetDrive(float d);
  57:../DaisySP/Source/Filters/svf.h ****     /** lowpass output
  58:../DaisySP/Source/Filters/svf.h ****         \return low pass output of the filter
  59:../DaisySP/Source/Filters/svf.h ****     */
  60:../DaisySP/Source/Filters/svf.h ****     inline float Low() { return out_low_; }
 1448              		.loc 14 60 18 view .LVU449
 1449              	.LBB1211:
 1450              		.loc 14 60 26 view .LVU450
 1451              		.loc 14 60 26 is_stmt 0 view .LVU451
 1452              	.LBE1211:
 1453              	.LBE1210:
  94:ModeFilterDrive.h ****     float stage1_r = input_lpf_r_.Low() * gate_gain_r;
 1454              		.loc 13 94 5 is_stmt 1 view .LVU452
 1455              	.LBB1212:
 1456              	.LBI1212:
 1457              		.loc 14 60 18 view .LVU453
 1458              	.LBB1213:
 1459              		.loc 14 60 26 view .LVU454
 1460              		.loc 14 60 26 is_stmt 0 view .LVU455
 1461              	.LBE1213:
 1462              	.LBE1212:
 1463              		.loc 13 94 43 discriminator 1 view .LVU456
 1464 0086 D4ED6B7A 		vldr.32	s15, [r4, #428]
  93:ModeFilterDrive.h ****     float stage1_l = input_lpf_l_.Low() * gate_gain_l;
 1465              		.loc 13 93 43 discriminator 1 view .LVU457
 1466 008a 94ED580A 		vldr.32	s0, [r4, #352]
  95:ModeFilterDrive.h **** 
  96:ModeFilterDrive.h ****     // Stage 2 for 24dB/oct slope
  97:ModeFilterDrive.h ****     input_lpf_l2_.Process(stage1_l);
 1467              		.loc 13 97 26 view .LVU458
 1468 008e 04F5E470 		add	r0, r4, #456
  94:ModeFilterDrive.h ****     float stage1_r = input_lpf_r_.Low() * gate_gain_r;
 1469              		.loc 13 94 43 discriminator 1 view .LVU459
 1470 0092 28EE278A 		vmul.f32	s16, s16, s15
 1471              	.LVL79:
 1472              		.loc 13 97 5 is_stmt 1 view .LVU460
 1473              		.loc 13 97 26 is_stmt 0 view .LVU461
 1474 0096 29EE000A 		vmul.f32	s0, s18, s0
 1475              	.LVL80:
 1476              		.loc 13 97 26 view .LVU462
 1477 009a FFF7FEFF 		bl	_ZN7daisysp3Svf7ProcessEf
 1478              	.LVL81:
ARM GAS  /var/folders/v1/156fk8j97zv9pzndh61fy7zm0000gn/T//cc9ANSfA.s 			page 48


  98:ModeFilterDrive.h ****     input_lpf_r2_.Process(stage1_r);
 1479              		.loc 13 98 5 is_stmt 1 view .LVU463
 1480              		.loc 13 98 26 is_stmt 0 view .LVU464
 1481 009e 04F50570 		add	r0, r4, #532
 1482 00a2 B0EE480A 		vmov.f32	s0, s16
 1483 00a6 FFF7FEFF 		bl	_ZN7daisysp3Svf7ProcessEf
 1484              	.LVL82:
  99:ModeFilterDrive.h ****     float clean_l = input_lpf_l2_.Low();
 1485              		.loc 13 99 5 is_stmt 1 view .LVU465
 1486              	.LBB1214:
 1487              	.LBI1214:
 1488              		.loc 14 60 18 view .LVU466
 1489              	.LBB1215:
 1490              		.loc 14 60 26 view .LVU467
 1491              	.LBE1215:
 1492              	.LBE1214:
 100:ModeFilterDrive.h ****     float clean_r = input_lpf_r2_.Low();
 101:ModeFilterDrive.h **** 
 102:ModeFilterDrive.h ****     // 1. Apply Drive (Pre-Filter) with 2x Hermite Oversampling
 103:ModeFilterDrive.h ****     // Gain staging: Boost input based on drive amount
 104:ModeFilterDrive.h ****     float drive_gain = 1.0f + (drive_amount_ * kDriveGainMultiplier);
 1493              		.loc 13 104 11 is_stmt 0 view .LVU468
 1494 00aa B7EE005A 		vmov.f32	s10, #1.0e+0
 1495 00ae F3EE007A 		vmov.f32	s15, #1.6e+1
 1496 00b2 94ED997A 		vldr.32	s14, [r4, #612]
 105:ModeFilterDrive.h ****     float dry_l = clean_l * drive_gain;
 106:ModeFilterDrive.h ****     float dry_r = clean_r * drive_gain;
 107:ModeFilterDrive.h **** 
 108:ModeFilterDrive.h ****     // Hermite Interpolation for upsampling
 109:ModeFilterDrive.h ****     // Generate intermediate sample using 4-point Hermite
 110:ModeFilterDrive.h ****     float dry_l_mid =
 111:ModeFilterDrive.h ****         HermiteInterpolate(hist_l_[0], hist_l_[1], hist_l_[2], dry_l, 0.5f);
 1497              		.loc 13 111 27 view .LVU469
 1498 00b6 94ED9F6A 		vldr.32	s12, [r4, #636]
 1499              	.LBB1217:
 1500              	.LBB1218:
 112:ModeFilterDrive.h ****     float dry_r_mid =
 113:ModeFilterDrive.h ****         HermiteInterpolate(hist_r_[0], hist_r_[1], hist_r_[2], dry_r, 0.5f);
 114:ModeFilterDrive.h **** 
 115:ModeFilterDrive.h ****     // Process both samples through drive
 116:ModeFilterDrive.h ****     float dist_l_mid = ApplyDrive(dry_l_mid);
 117:ModeFilterDrive.h ****     float dist_r_mid = ApplyDrive(dry_r_mid);
 118:ModeFilterDrive.h ****     float dist_l_curr = ApplyDrive(dry_l);
 119:ModeFilterDrive.h ****     float dist_r_curr = ApplyDrive(dry_r);
 120:ModeFilterDrive.h **** 
 121:ModeFilterDrive.h ****     // Decimation with weighted averaging (anti-aliasing)
 122:ModeFilterDrive.h ****     float driven_l = (dist_l_mid * kOversampleMidWeight +
 123:ModeFilterDrive.h ****                       dist_l_curr * kOversampleCurrWeight);
 124:ModeFilterDrive.h ****     float driven_r = (dist_r_mid * kOversampleMidWeight +
 125:ModeFilterDrive.h ****                       dist_r_curr * kOversampleCurrWeight);
 126:ModeFilterDrive.h **** 
 127:ModeFilterDrive.h ****     // Update history buffer
 128:ModeFilterDrive.h ****     hist_l_[0] = hist_l_[1];
 129:ModeFilterDrive.h ****     hist_l_[1] = hist_l_[2];
 130:ModeFilterDrive.h ****     hist_l_[2] = dry_l;
 131:ModeFilterDrive.h **** 
 132:ModeFilterDrive.h ****     hist_r_[0] = hist_r_[1];
ARM GAS  /var/folders/v1/156fk8j97zv9pzndh61fy7zm0000gn/T//cc9ANSfA.s 			page 49


 133:ModeFilterDrive.h ****     hist_r_[1] = hist_r_[2];
 134:ModeFilterDrive.h ****     hist_r_[2] = dry_r;
 135:ModeFilterDrive.h **** 
 136:ModeFilterDrive.h ****     // 2. Apply Filter (24dB/oct - 4 Pole)
 137:ModeFilterDrive.h ****     // Stereo Spread: Offset Right channel cutoff slightly for width (cached in
 138:ModeFilterDrive.h ****     // UpdateControls)
 139:ModeFilterDrive.h **** 
 140:ModeFilterDrive.h ****     // Stage 1
 141:ModeFilterDrive.h ****     svf_l_.SetFreq(freq_);
 142:ModeFilterDrive.h ****     svf_l_.SetRes(res_);
 143:ModeFilterDrive.h ****     svf_l_.SetDrive(drive_);
 144:ModeFilterDrive.h **** 
 145:ModeFilterDrive.h ****     svf_r_.SetFreq(freq_ * stereo_spread_);
 146:ModeFilterDrive.h ****     svf_r_.SetRes(res_);
 147:ModeFilterDrive.h ****     svf_r_.SetDrive(drive_);
 148:ModeFilterDrive.h **** 
 149:ModeFilterDrive.h ****     // Stage 2
 150:ModeFilterDrive.h ****     svf_l2_.SetFreq(freq_);
 151:ModeFilterDrive.h ****     svf_l2_.SetRes(res_);
 152:ModeFilterDrive.h ****     svf_l2_.SetDrive(drive_);
 153:ModeFilterDrive.h **** 
 154:ModeFilterDrive.h ****     svf_r2_.SetFreq(freq_ * stereo_spread_);
 155:ModeFilterDrive.h ****     svf_r2_.SetRes(res_);
 156:ModeFilterDrive.h ****     svf_r2_.SetDrive(drive_);
 157:ModeFilterDrive.h **** 
 158:ModeFilterDrive.h ****     // Process Stage 1
 159:ModeFilterDrive.h ****     svf_l_.Process(driven_l);
 160:ModeFilterDrive.h ****     svf_r_.Process(driven_r);
 161:ModeFilterDrive.h **** 
 162:ModeFilterDrive.h ****     // Process Stage 2 (Input is output of Stage 1)
 163:ModeFilterDrive.h ****     // We need to select the correct output from Stage 1 to feed Stage 2
 164:ModeFilterDrive.h ****     float l1_out, r1_out;
 165:ModeFilterDrive.h ****     if (filter_mode_ == FILTER_HP) {
 166:ModeFilterDrive.h ****       l1_out = svf_l_.High();
 167:ModeFilterDrive.h ****       r1_out = svf_r_.High();
 168:ModeFilterDrive.h ****     } else if (filter_mode_ == FILTER_BP) {
 169:ModeFilterDrive.h ****       l1_out = svf_l_.Band();
 170:ModeFilterDrive.h ****       r1_out = svf_r_.Band();
 171:ModeFilterDrive.h ****     } else { // LP
 172:ModeFilterDrive.h ****       l1_out = svf_l_.Low();
 173:ModeFilterDrive.h ****       r1_out = svf_r_.Low();
 174:ModeFilterDrive.h ****     }
 175:ModeFilterDrive.h **** 
 176:ModeFilterDrive.h ****     svf_l2_.Process(l1_out);
 177:ModeFilterDrive.h ****     svf_r2_.Process(r1_out);
 178:ModeFilterDrive.h **** 
 179:ModeFilterDrive.h ****     float l_filtered = 0.0f;
 180:ModeFilterDrive.h ****     float r_filtered = 0.0f;
 181:ModeFilterDrive.h **** 
 182:ModeFilterDrive.h ****     if (filter_mode_ == FILTER_HP) { // HP
 183:ModeFilterDrive.h ****       l_filtered = svf_l2_.High();
 184:ModeFilterDrive.h ****       r_filtered = svf_r2_.High();
 185:ModeFilterDrive.h ****     } else if (filter_mode_ == FILTER_BP) { // BP
 186:ModeFilterDrive.h ****       l_filtered = svf_l2_.Band();
 187:ModeFilterDrive.h ****       r_filtered = svf_r2_.Band();
 188:ModeFilterDrive.h ****     } else { // LP
 189:ModeFilterDrive.h ****       l_filtered = svf_l2_.Low();
ARM GAS  /var/folders/v1/156fk8j97zv9pzndh61fy7zm0000gn/T//cc9ANSfA.s 			page 50


 190:ModeFilterDrive.h ****       r_filtered = svf_r2_.Low();
 191:ModeFilterDrive.h ****     }
 192:ModeFilterDrive.h **** 
 193:ModeFilterDrive.h ****     // 3. Output Gain Compensation & Limiting
 194:ModeFilterDrive.h ****     // As drive increases, we attenuate output to maintain constant perceived
 195:ModeFilterDrive.h ****     // loudness.
 196:ModeFilterDrive.h ****     float comp_gain = 1.0f / sqrtf(drive_gain);
 197:ModeFilterDrive.h **** 
 198:ModeFilterDrive.h ****     // Apply compensation
 199:ModeFilterDrive.h ****     l_filtered *= comp_gain;
 200:ModeFilterDrive.h ****     r_filtered *= comp_gain;
 201:ModeFilterDrive.h **** 
 202:ModeFilterDrive.h ****     // Final Safety Limiter (Soft Clip)
 203:ModeFilterDrive.h ****     float final_l = tanhf(l_filtered);
 204:ModeFilterDrive.h ****     float final_r = tanhf(r_filtered);
 205:ModeFilterDrive.h **** 
 206:ModeFilterDrive.h ****     // NAN Check / Safety Recovery (Soluciona el "petado" reiniciando el filtro)
 207:ModeFilterDrive.h ****     if (isnan(final_l) || isinf(final_l) || isnan(final_r) || isinf(final_r)) {
 208:ModeFilterDrive.h ****       Init(fs_);
 209:ModeFilterDrive.h ****       final_l = 0.0f;
 210:ModeFilterDrive.h ****       final_r = 0.0f;
 211:ModeFilterDrive.h ****     }
 212:ModeFilterDrive.h **** 
 213:ModeFilterDrive.h ****     *out_l = final_l;
 214:ModeFilterDrive.h ****     *out_r = final_r;
 215:ModeFilterDrive.h ****   }
 216:ModeFilterDrive.h **** 
 217:ModeFilterDrive.h ****   void UpdateControls(DaisyLegio &hw) {
 218:ModeFilterDrive.h ****     // Knobs
 219:ModeFilterDrive.h ****     float k_cutoff = hw.controls[DaisyLegio::CONTROL_KNOB_TOP].Value();
 220:ModeFilterDrive.h ****     float k_res = hw.controls[DaisyLegio::CONTROL_KNOB_BOTTOM].Value();
 221:ModeFilterDrive.h **** 
 222:ModeFilterDrive.h ****     // Encoder Turn (Drive Amount)
 223:ModeFilterDrive.h ****     float inc = hw.encoder.Increment();
 224:ModeFilterDrive.h ****     drive_amount_ += inc * kDriveEncoderSensitivity;
 225:ModeFilterDrive.h ****     drive_amount_ = fclamp(drive_amount_, 0.0f, 1.0f);
 226:ModeFilterDrive.h **** 
 227:ModeFilterDrive.h ****     // Switches
 228:ModeFilterDrive.h ****     int sw_drive = hw.sw[DaisyLegio::SW_LEFT].Read();
 229:ModeFilterDrive.h ****     int sw_filter = hw.sw[DaisyLegio::SW_RIGHT].Read();
 230:ModeFilterDrive.h **** 
 231:ModeFilterDrive.h ****     // Map Filter Mode (Inverted: 2=Top, 1=Mid, 0=Bot)
 232:ModeFilterDrive.h ****     if (sw_filter == 2)
 233:ModeFilterDrive.h ****       filter_mode_ = FILTER_HP;
 234:ModeFilterDrive.h ****     else if (sw_filter == 1)
 235:ModeFilterDrive.h ****       filter_mode_ = FILTER_BP;
 236:ModeFilterDrive.h ****     else
 237:ModeFilterDrive.h ****       filter_mode_ = FILTER_LP;
 238:ModeFilterDrive.h **** 
 239:ModeFilterDrive.h ****     // Map Drive Mode (Inverted: 2=Top, 1=Mid, 0=Bot)
 240:ModeFilterDrive.h ****     if (sw_drive == 2)
 241:ModeFilterDrive.h ****       drive_mode_ = DRIVE_WARM;
 242:ModeFilterDrive.h ****     else if (sw_drive == 1)
 243:ModeFilterDrive.h ****       drive_mode_ = DRIVE_HARD;
 244:ModeFilterDrive.h ****     else
 245:ModeFilterDrive.h ****       drive_mode_ = DRIVE_DESTROY;
 246:ModeFilterDrive.h **** 
ARM GAS  /var/folders/v1/156fk8j97zv9pzndh61fy7zm0000gn/T//cc9ANSfA.s 			page 51


 247:ModeFilterDrive.h ****     // Update DSP Parameters
 248:ModeFilterDrive.h ****     // Extended Range: 5Hz to 18kHz for deep sub-bass control
 249:ModeFilterDrive.h ****     float target_freq = fmap(k_cutoff, 5.0f, 18000.0f, Mapping::LOG);
 250:ModeFilterDrive.h **** 
 251:ModeFilterDrive.h ****     // Smooth parameters
 252:ModeFilterDrive.h ****     fonepole(freq_, target_freq, kParamSmoothCoeff);
 253:ModeFilterDrive.h ****     fonepole(res_, k_res, kParamSmoothCoeff);
 254:ModeFilterDrive.h ****     fonepole(drive_, drive_amount_, kParamSmoothCoeff);
 255:ModeFilterDrive.h **** 
 256:ModeFilterDrive.h ****     // Calculate stereo spread (moved from Process for efficiency)
 257:ModeFilterDrive.h ****     stereo_spread_ = 1.0f + (res_ * kStereoSpreadAmount);
 258:ModeFilterDrive.h ****   }
 259:ModeFilterDrive.h **** 
 260:ModeFilterDrive.h **** private:
 261:ModeFilterDrive.h ****   // Audio Processing Constants
 262:ModeFilterDrive.h ****   static constexpr float kGateThreshold = 0.002f; // ~ -54dB
 263:ModeFilterDrive.h ****   static constexpr float kGateAttack = 0.99f;
 264:ModeFilterDrive.h ****   static constexpr float kGateRelease = 0.01f;
 265:ModeFilterDrive.h ****   static constexpr float kDriveGainMultiplier = 16.0f;
 266:ModeFilterDrive.h ****   static constexpr float kOversampleMidWeight = 0.4f;
 267:ModeFilterDrive.h ****   static constexpr float kOversampleCurrWeight = 0.6f;
 268:ModeFilterDrive.h ****   static constexpr float kStereoSpreadAmount = 0.05f; // Up to 5% spread
 269:ModeFilterDrive.h ****   static constexpr float kParamSmoothCoeff = 0.05f;
 270:ModeFilterDrive.h ****   static constexpr float kDriveEncoderSensitivity =
 271:ModeFilterDrive.h ****       0.05f; // 5% change per click
 272:ModeFilterDrive.h **** 
 273:ModeFilterDrive.h ****   // Wavefolder Constants
 274:ModeFilterDrive.h ****   static constexpr float kWavefoldInputClamp = 5.0f;
 275:ModeFilterDrive.h ****   static constexpr float kWavefoldStage2Gain = 1.5f;
 276:ModeFilterDrive.h ****   static constexpr float kWavefoldStage3Gain = 1.2f;
 277:ModeFilterDrive.h ****   static constexpr float kWavefoldOutputScale = 0.7f;
 278:ModeFilterDrive.h **** 
 279:ModeFilterDrive.h ****   Svf svf_l_, svf_r_;
 280:ModeFilterDrive.h ****   Svf svf_l2_, svf_r2_;             // Second stage for 24dB/oct
 281:ModeFilterDrive.h ****   Svf input_lpf_l_, input_lpf_r_;   // Input LPF stage 1
 282:ModeFilterDrive.h ****   Svf input_lpf_l2_, input_lpf_r2_; // Input LPF stage 2 (2-pole)
 283:ModeFilterDrive.h ****   float fs_;
 284:ModeFilterDrive.h ****   float drive_amount_;
 285:ModeFilterDrive.h ****   float freq_, res_, drive_;
 286:ModeFilterDrive.h ****   float env_follower_l_, env_follower_r_; // For Noise Gate
 287:ModeFilterDrive.h ****   float hist_l_[4], hist_r_[4];           // Hermite interpolation history
 288:ModeFilterDrive.h ****   float stereo_spread_;                   // Cached stereo spread value
 289:ModeFilterDrive.h **** 
 290:ModeFilterDrive.h ****   enum FilterMode { FILTER_HP, FILTER_BP, FILTER_LP } filter_mode_;
 291:ModeFilterDrive.h ****   enum DriveMode { DRIVE_WARM, DRIVE_HARD, DRIVE_DESTROY } drive_mode_;
 292:ModeFilterDrive.h **** 
 293:ModeFilterDrive.h ****   float ApplyDrive(float x) {
 294:ModeFilterDrive.h ****     switch (drive_mode_) {
 295:ModeFilterDrive.h ****     case DRIVE_WARM:
 296:ModeFilterDrive.h ****       return AsymmetricSoftClip(x);
 297:ModeFilterDrive.h ****     case DRIVE_HARD:
 298:ModeFilterDrive.h ****       return x / sqrtf(1.0f + (x * x));
 299:ModeFilterDrive.h ****     case DRIVE_DESTROY:
 300:ModeFilterDrive.h ****       return Wavefolder(x);
 301:ModeFilterDrive.h ****     default:
 302:ModeFilterDrive.h ****       return x;
 303:ModeFilterDrive.h ****     }
ARM GAS  /var/folders/v1/156fk8j97zv9pzndh61fy7zm0000gn/T//cc9ANSfA.s 			page 52


 304:ModeFilterDrive.h ****   }
 305:ModeFilterDrive.h **** 
 306:ModeFilterDrive.h ****   // Hermite interpolation for smooth upsampling
 307:ModeFilterDrive.h ****   float HermiteInterpolate(float xm1, float x0, float x1, float x2, float t) {
 308:ModeFilterDrive.h ****     float c0 = x0;
 309:ModeFilterDrive.h ****     float c1 = 0.5f * (x1 - xm1);
 310:ModeFilterDrive.h ****     float c2 = xm1 - 2.5f * x0 + 2.0f * x1 - 0.5f * x2;
 1501              		.loc 13 310 20 view .LVU470
 1502 00ba F0EE045A 		vmov.f32	s11, #2.5e+0
 1503              	.LBE1218:
 1504              	.LBE1217:
 104:ModeFilterDrive.h ****     float dry_l = clean_l * drive_gain;
 1505              		.loc 13 104 11 view .LVU471
 1506 00be B0EE45AA 		vmov.f32	s20, s10
 113:ModeFilterDrive.h **** 
 1507              		.loc 13 113 27 view .LVU472
 1508 00c2 D4EDA36A 		vldr.32	s13, [r4, #652]
 111:ModeFilterDrive.h ****     float dry_r_mid =
 1509              		.loc 13 111 27 view .LVU473
 1510 00c6 94EDA0CA 		vldr.32	s24, [r4, #640]
 1511              	.LBB1232:
 1512              	.LBB1219:
 311:ModeFilterDrive.h ****     float c3 = 0.5f * (x2 - xm1) + 1.5f * (x0 - x1);
 1513              		.loc 13 311 41 view .LVU474
 1514 00ca B7EE084A 		vmov.f32	s8, #1.5e+0
 1515              	.LBE1219:
 1516              	.LBE1232:
 111:ModeFilterDrive.h ****     float dry_r_mid =
 1517              		.loc 13 111 27 view .LVU475
 1518 00ce D4EDA1BA 		vldr.32	s23, [r4, #644]
 1519              	.LBB1233:
 1520              	.LBB1220:
 310:ModeFilterDrive.h ****     float c3 = 0.5f * (x2 - xm1) + 1.5f * (x0 - x1);
 1521              		.loc 13 310 51 view .LVU476
 1522 00d2 B6EE008A 		vmov.f32	s16, #5.0e-1
 1523              	.LVL83:
 310:ModeFilterDrive.h ****     float c3 = 0.5f * (x2 - xm1) + 1.5f * (x0 - x1);
 1524              		.loc 13 310 51 view .LVU477
 1525              	.LBE1220:
 1526              	.LBE1233:
 104:ModeFilterDrive.h ****     float dry_l = clean_l * drive_gain;
 1527              		.loc 13 104 11 view .LVU478
 1528 00d6 A7EE27AA 		vfma.f32	s20, s14, s15
 113:ModeFilterDrive.h **** 
 1529              		.loc 13 113 27 view .LVU479
 1530 00da 94EDA4BA 		vldr.32	s22, [r4, #656]
 1531              	.LBB1234:
 1532              	.LBB1221:
 310:ModeFilterDrive.h ****     float c3 = 0.5f * (x2 - xm1) + 1.5f * (x0 - x1);
 1533              		.loc 13 310 20 view .LVU480
 1534 00de B0EE467A 		vmov.f32	s14, s12
 1535              	.LBE1221:
 1536              	.LBE1234:
 1537              	.LBB1235:
 1538              	.LBB1216:
 1539              		.loc 14 60 33 view .LVU481
 1540 00e2 94ED7E9A 		vldr.32	s18, [r4, #504]
ARM GAS  /var/folders/v1/156fk8j97zv9pzndh61fy7zm0000gn/T//cc9ANSfA.s 			page 53


 1541              	.LVL84:
 1542              		.loc 14 60 33 view .LVU482
 1543              	.LBE1216:
 1544              	.LBE1235:
 100:ModeFilterDrive.h **** 
 1545              		.loc 13 100 5 is_stmt 1 view .LVU483
 1546              	.LBB1236:
 1547              	.LBI1236:
 1548              		.loc 14 60 18 view .LVU484
 1549              	.LBB1237:
 1550              		.loc 14 60 26 view .LVU485
 1551              	.LBE1237:
 1552              	.LBE1236:
 1553              	.LBB1239:
 1554              	.LBB1240:
 310:ModeFilterDrive.h ****     float c3 = 0.5f * (x2 - xm1) + 1.5f * (x0 - x1);
 1555              		.loc 13 310 20 is_stmt 0 view .LVU486
 1556 00e6 F0EE667A 		vmov.f32	s15, s13
 1557              	.LBE1240:
 1558              	.LBE1239:
 113:ModeFilterDrive.h **** 
 1559              		.loc 13 113 27 view .LVU487
 1560 00ea D4EDA5AA 		vldr.32	s21, [r4, #660]
 1561              	.LBB1249:
 1562              	.LBB1222:
 309:ModeFilterDrive.h ****     float c2 = xm1 - 2.5f * x0 + 2.0f * x1 - 0.5f * x2;
 1563              		.loc 13 309 27 view .LVU488
 1564 00ee 7BEEC63A 		vsub.f32	s7, s23, s12
 1565              	.LBE1222:
 1566              	.LBE1249:
 1567              	.LBB1250:
 1568              	.LBB1238:
 1569              		.loc 14 60 33 view .LVU489
 1570 00f2 D4ED918A 		vldr.32	s17, [r4, #580]
 1571              	.LVL85:
 1572              		.loc 14 60 33 view .LVU490
 1573              	.LBE1238:
 1574              	.LBE1250:
 104:ModeFilterDrive.h ****     float dry_l = clean_l * drive_gain;
 1575              		.loc 13 104 5 is_stmt 1 view .LVU491
 105:ModeFilterDrive.h ****     float dry_r = clean_r * drive_gain;
 1576              		.loc 13 105 5 view .LVU492
 1577              	.LBB1251:
 1578              	.LBB1223:
 310:ModeFilterDrive.h ****     float c3 = 0.5f * (x2 - xm1) + 1.5f * (x0 - x1);
 1579              		.loc 13 310 20 is_stmt 0 view .LVU493
 1580 00f6 ACEE657A 		vfms.f32	s14, s24, s11
 1581 00fa 94F8A132 		ldrb	r3, [r4, #673]	@ zero_extendqisi2
 1582              	.LBE1223:
 1583              	.LBE1251:
 1584              	.LBB1252:
 1585              	.LBB1241:
 1586 00fe EBEE657A 		vfms.f32	s15, s22, s11
 1587              	.LBE1241:
 1588              	.LBE1252:
 105:ModeFilterDrive.h ****     float dry_r = clean_r * drive_gain;
 1589              		.loc 13 105 11 view .LVU494
ARM GAS  /var/folders/v1/156fk8j97zv9pzndh61fy7zm0000gn/T//cc9ANSfA.s 			page 54


 1590 0102 2AEE099A 		vmul.f32	s18, s20, s18
 1591              	.LVL86:
 106:ModeFilterDrive.h **** 
 1592              		.loc 13 106 5 is_stmt 1 view .LVU495
 1593              	.LBB1253:
 1594              	.LBB1254:
 294:ModeFilterDrive.h ****     case DRIVE_WARM:
 1595              		.loc 13 294 5 is_stmt 0 view .LVU496
 1596 0106 012B     		cmp	r3, #1
 1597              	.LBE1254:
 1598              	.LBE1253:
 1599              	.LBB1317:
 1600              	.LBB1224:
 1601              		.loc 13 311 47 view .LVU497
 1602 0108 7CEE6B5A 		vsub.f32	s11, s24, s23
 310:ModeFilterDrive.h ****     float c3 = 0.5f * (x2 - xm1) + 1.5f * (x0 - x1);
 1603              		.loc 13 310 32 view .LVU498
 1604 010c F0EE004A 		vmov.f32	s9, #2.0e+0
 1605              		.loc 13 311 27 view .LVU499
 1606 0110 39EE466A 		vsub.f32	s12, s18, s12
 1607              		.loc 13 311 41 view .LVU500
 1608 0114 65EE845A 		vmul.f32	s11, s11, s8
 1609              	.LBE1224:
 1610              	.LBE1317:
 106:ModeFilterDrive.h **** 
 1611              		.loc 13 106 11 view .LVU501
 1612 0118 6AEE288A 		vmul.f32	s17, s20, s17
 1613              	.LVL87:
 110:ModeFilterDrive.h ****         HermiteInterpolate(hist_l_[0], hist_l_[1], hist_l_[2], dry_l, 0.5f);
 1614              		.loc 13 110 5 is_stmt 1 view .LVU502
 1615              	.LBB1318:
 1616              	.LBI1217:
 307:ModeFilterDrive.h ****     float c0 = x0;
 1617              		.loc 13 307 9 view .LVU503
 1618              	.LBB1225:
 308:ModeFilterDrive.h ****     float c1 = 0.5f * (x1 - xm1);
 1619              		.loc 13 308 5 view .LVU504
 309:ModeFilterDrive.h ****     float c2 = xm1 - 2.5f * x0 + 2.0f * x1 - 0.5f * x2;
 1620              		.loc 13 309 5 view .LVU505
 310:ModeFilterDrive.h ****     float c3 = 0.5f * (x2 - xm1) + 1.5f * (x0 - x1);
 1621              		.loc 13 310 5 view .LVU506
 310:ModeFilterDrive.h ****     float c3 = 0.5f * (x2 - xm1) + 1.5f * (x0 - x1);
 1622              		.loc 13 310 32 is_stmt 0 view .LVU507
 1623 011c ABEEA47A 		vfma.f32	s14, s23, s9
 1624              		.loc 13 311 11 view .LVU508
 1625 0120 E6EE085A 		vfma.f32	s11, s12, s16
 1626              	.LBE1225:
 1627              	.LBE1318:
 1628              	.LBB1319:
 1629              	.LBB1242:
 1630              		.loc 13 311 47 view .LVU509
 1631 0124 3BEE6A6A 		vsub.f32	s12, s22, s21
 1632              		.loc 13 311 27 view .LVU510
 1633 0128 38EEE63A 		vsub.f32	s6, s17, s13
 310:ModeFilterDrive.h ****     float c3 = 0.5f * (x2 - xm1) + 1.5f * (x0 - x1);
 1634              		.loc 13 310 32 view .LVU511
 1635 012c EAEEA47A 		vfma.f32	s15, s21, s9
ARM GAS  /var/folders/v1/156fk8j97zv9pzndh61fy7zm0000gn/T//cc9ANSfA.s 			page 55


 1636              		.loc 13 311 41 view .LVU512
 1637 0130 26EE046A 		vmul.f32	s12, s12, s8
 1638              	.LBE1242:
 1639              	.LBE1319:
 1640              	.LBB1320:
 1641              	.LBB1226:
 310:ModeFilterDrive.h ****     float c3 = 0.5f * (x2 - xm1) + 1.5f * (x0 - x1);
 1642              		.loc 13 310 51 view .LVU513
 1643 0134 69EE08DA 		vmul.f32	s27, s18, s16
 1644              	.LBE1226:
 1645              	.LBE1320:
 1646              	.LBB1321:
 1647              	.LBB1243:
 1648 0138 68EE889A 		vmul.f32	s19, s17, s16
 1649              		.loc 13 311 11 view .LVU514
 1650 013c A3EE086A 		vfma.f32	s12, s6, s16
 1651              	.LBE1243:
 1652              	.LBE1321:
 1653              	.LBB1322:
 1654              	.LBB1227:
 310:ModeFilterDrive.h ****     float c3 = 0.5f * (x2 - xm1) + 1.5f * (x0 - x1);
 1655              		.loc 13 310 11 view .LVU515
 1656 0140 37EE6D7A 		vsub.f32	s14, s14, s27
 1657              	.LVL88:
 1658              		.loc 13 311 5 is_stmt 1 view .LVU516
 312:ModeFilterDrive.h ****     return ((c3 * t + c2) * t + c1) * t + c0;
 1659              		.loc 13 312 5 view .LVU517
 1660              	.LBE1227:
 1661              	.LBE1322:
 1662              	.LBB1323:
 1663              	.LBB1244:
 310:ModeFilterDrive.h ****     float c3 = 0.5f * (x2 - xm1) + 1.5f * (x0 - x1);
 1664              		.loc 13 310 11 is_stmt 0 view .LVU518
 1665 0144 77EEE97A 		vsub.f32	s15, s15, s19
 309:ModeFilterDrive.h ****     float c2 = xm1 - 2.5f * x0 + 2.0f * x1 - 0.5f * x2;
 1666              		.loc 13 309 27 view .LVU519
 1667 0148 7AEEE66A 		vsub.f32	s13, s21, s13
 1668              	.LBE1244:
 1669              	.LBE1323:
 1670              	.LBB1324:
 1671              	.LBB1228:
 1672              		.loc 13 312 21 view .LVU520
 1673 014c A5EE887A 		vfma.f32	s14, s11, s16
 1674              	.LVL89:
 1675              		.loc 13 312 43 view .LVU521
 1676 0150 B0EE4CDA 		vmov.f32	s26, s24
 1677              	.LBE1228:
 1678              	.LBE1324:
 1679              	.LBB1325:
 1680              	.LBB1245:
 1681              		.loc 13 312 21 view .LVU522
 1682 0154 E6EE087A 		vfma.f32	s15, s12, s16
 1683              		.loc 13 312 43 view .LVU523
 1684 0158 F0EE4BCA 		vmov.f32	s25, s22
 1685              	.LBE1245:
 1686              	.LBE1325:
 1687              	.LBB1326:
ARM GAS  /var/folders/v1/156fk8j97zv9pzndh61fy7zm0000gn/T//cc9ANSfA.s 			page 56


 1688              	.LBB1229:
 1689              		.loc 13 312 27 view .LVU524
 1690 015c 27EE087A 		vmul.f32	s14, s14, s16
 1691              	.LBE1229:
 1692              	.LBE1326:
 1693              	.LBB1327:
 1694              	.LBB1246:
 1695 0160 67EE887A 		vmul.f32	s15, s15, s16
 1696              	.LBE1246:
 1697              	.LBE1327:
 1698              	.LBB1328:
 1699              	.LBB1230:
 1700              		.loc 13 312 31 view .LVU525
 1701 0164 A3EE887A 		vfma.f32	s14, s7, s16
 1702              	.LBE1230:
 1703              	.LBE1328:
 1704              	.LBB1329:
 1705              	.LBB1247:
 1706 0168 E6EE887A 		vfma.f32	s15, s13, s16
 1707              	.LBE1247:
 1708              	.LBE1329:
 1709              	.LBB1330:
 1710              	.LBB1231:
 1711              		.loc 13 312 43 view .LVU526
 1712 016c A7EE08DA 		vfma.f32	s26, s14, s16
 1713              	.LVL90:
 1714              		.loc 13 312 43 view .LVU527
 1715              	.LBE1231:
 1716              	.LBE1330:
 112:ModeFilterDrive.h ****         HermiteInterpolate(hist_r_[0], hist_r_[1], hist_r_[2], dry_r, 0.5f);
 1717              		.loc 13 112 5 is_stmt 1 view .LVU528
 1718              	.LBB1331:
 1719              	.LBI1239:
 307:ModeFilterDrive.h ****     float c0 = x0;
 1720              		.loc 13 307 9 view .LVU529
 1721              	.LBB1248:
 308:ModeFilterDrive.h ****     float c1 = 0.5f * (x1 - xm1);
 1722              		.loc 13 308 5 view .LVU530
 309:ModeFilterDrive.h ****     float c2 = xm1 - 2.5f * x0 + 2.0f * x1 - 0.5f * x2;
 1723              		.loc 13 309 5 view .LVU531
 310:ModeFilterDrive.h ****     float c3 = 0.5f * (x2 - xm1) + 1.5f * (x0 - x1);
 1724              		.loc 13 310 5 view .LVU532
 311:ModeFilterDrive.h ****     return ((c3 * t + c2) * t + c1) * t + c0;
 1725              		.loc 13 311 5 view .LVU533
 1726              		.loc 13 312 5 view .LVU534
 1727              		.loc 13 312 43 is_stmt 0 view .LVU535
 1728 0170 E7EE88CA 		vfma.f32	s25, s15, s16
 1729              	.LVL91:
 1730              		.loc 13 312 43 view .LVU536
 1731              	.LBE1248:
 1732              	.LBE1331:
 116:ModeFilterDrive.h ****     float dist_r_mid = ApplyDrive(dry_r_mid);
 1733              		.loc 13 116 5 is_stmt 1 view .LVU537
 1734              	.LBB1332:
 1735              	.LBI1253:
 293:ModeFilterDrive.h ****     switch (drive_mode_) {
 1736              		.loc 13 293 9 view .LVU538
ARM GAS  /var/folders/v1/156fk8j97zv9pzndh61fy7zm0000gn/T//cc9ANSfA.s 			page 57


 1737              	.LBB1301:
 294:ModeFilterDrive.h ****     case DRIVE_WARM:
 1738              		.loc 13 294 5 view .LVU539
 1739 0174 00F0F281 		beq	.L26
 1740 0178 022B     		cmp	r3, #2
 1741 017a 00F0DB80 		beq	.L27
 1742 017e 002B     		cmp	r3, #0
 1743 0180 00F04481 		beq	.L28
 1744              	.LBE1301:
 1745              	.LBE1332:
 122:ModeFilterDrive.h ****                       dist_l_curr * kOversampleCurrWeight);
 1746              		.loc 13 122 34 is_stmt 0 view .LVU540
 1747 0184 DFED9C7A 		vldr.32	s15, .L205+48
 123:ModeFilterDrive.h ****     float driven_r = (dist_r_mid * kOversampleMidWeight +
 1748              		.loc 13 123 35 view .LVU541
 1749 0188 DFED989A 		vldr.32	s19, .L205+36
 122:ModeFilterDrive.h ****                       dist_l_curr * kOversampleCurrWeight);
 1750              		.loc 13 122 34 view .LVU542
 1751 018c 2DEE277A 		vmul.f32	s14, s26, s15
 123:ModeFilterDrive.h ****     float driven_r = (dist_r_mid * kOversampleMidWeight +
 1752              		.loc 13 123 35 view .LVU543
 1753 0190 69EE29DA 		vmul.f32	s27, s18, s19
 124:ModeFilterDrive.h ****                       dist_r_curr * kOversampleCurrWeight);
 1754              		.loc 13 124 34 view .LVU544
 1755 0194 6CEEA77A 		vmul.f32	s15, s25, s15
 125:ModeFilterDrive.h **** 
 1756              		.loc 13 125 35 view .LVU545
 1757 0198 68EEA99A 		vmul.f32	s19, s17, s19
 1758              	.LVL92:
 1759              	.L29:
 122:ModeFilterDrive.h ****                       dist_l_curr * kOversampleCurrWeight);
 1760              		.loc 13 122 5 is_stmt 1 view .LVU546
 141:ModeFilterDrive.h ****     svf_l_.SetRes(res_);
 1761              		.loc 13 141 19 is_stmt 0 view .LVU547
 1762 019c 94ED9A0A 		vldr.32	s0, [r4, #616]
 1763 01a0 2046     		mov	r0, r4
 128:ModeFilterDrive.h ****     hist_l_[1] = hist_l_[2];
 1764              		.loc 13 128 16 view .LVU548
 1765 01a2 84ED9FCA 		vstr.32	s24, [r4, #636]
 122:ModeFilterDrive.h ****                       dist_l_curr * kOversampleCurrWeight);
 1766              		.loc 13 122 11 view .LVU549
 1767 01a6 77EE2DDA 		vadd.f32	s27, s14, s27
 1768              	.LVL93:
 124:ModeFilterDrive.h ****                       dist_r_curr * kOversampleCurrWeight);
 1769              		.loc 13 124 5 is_stmt 1 view .LVU550
 129:ModeFilterDrive.h ****     hist_l_[2] = dry_l;
 1770              		.loc 13 129 16 is_stmt 0 view .LVU551
 1771 01aa C4EDA0BA 		vstr.32	s23, [r4, #640]
 124:ModeFilterDrive.h ****                       dist_r_curr * kOversampleCurrWeight);
 1772              		.loc 13 124 11 view .LVU552
 1773 01ae 77EEA99A 		vadd.f32	s19, s15, s19
 1774              	.LVL94:
 128:ModeFilterDrive.h ****     hist_l_[1] = hist_l_[2];
 1775              		.loc 13 128 5 is_stmt 1 view .LVU553
 129:ModeFilterDrive.h ****     hist_l_[2] = dry_l;
 1776              		.loc 13 129 5 view .LVU554
 130:ModeFilterDrive.h **** 
ARM GAS  /var/folders/v1/156fk8j97zv9pzndh61fy7zm0000gn/T//cc9ANSfA.s 			page 58


 1777              		.loc 13 130 5 view .LVU555
 132:ModeFilterDrive.h ****     hist_r_[1] = hist_r_[2];
 1778              		.loc 13 132 5 view .LVU556
 133:ModeFilterDrive.h ****     hist_r_[2] = dry_r;
 1779              		.loc 13 133 5 view .LVU557
 134:ModeFilterDrive.h **** 
 1780              		.loc 13 134 5 view .LVU558
 141:ModeFilterDrive.h ****     svf_l_.SetRes(res_);
 1781              		.loc 13 141 5 view .LVU559
 130:ModeFilterDrive.h **** 
 1782              		.loc 13 130 16 is_stmt 0 view .LVU560
 1783 01b2 84EDA19A 		vstr.32	s18, [r4, #644]
 145:ModeFilterDrive.h ****     svf_r_.SetRes(res_);
 1784              		.loc 13 145 19 view .LVU561
 1785 01b6 04F14C05 		add	r5, r4, #76
 132:ModeFilterDrive.h ****     hist_r_[1] = hist_r_[2];
 1786              		.loc 13 132 16 view .LVU562
 1787 01ba 84EDA3BA 		vstr.32	s22, [r4, #652]
 150:ModeFilterDrive.h ****     svf_l2_.SetRes(res_);
 1788              		.loc 13 150 20 view .LVU563
 1789 01be 04F19807 		add	r7, r4, #152
 133:ModeFilterDrive.h ****     hist_r_[2] = dry_r;
 1790              		.loc 13 133 16 view .LVU564
 1791 01c2 C4EDA4AA 		vstr.32	s21, [r4, #656]
 154:ModeFilterDrive.h ****     svf_r2_.SetRes(res_);
 1792              		.loc 13 154 20 view .LVU565
 1793 01c6 04F1E406 		add	r6, r4, #228
 134:ModeFilterDrive.h **** 
 1794              		.loc 13 134 16 view .LVU566
 1795 01ca C4EDA58A 		vstr.32	s17, [r4, #660]
 141:ModeFilterDrive.h ****     svf_l_.SetRes(res_);
 1796              		.loc 13 141 19 view .LVU567
 1797 01ce FFF7FEFF 		bl	_ZN7daisysp3Svf7SetFreqEf
 1798              	.LVL95:
 142:ModeFilterDrive.h ****     svf_l_.SetDrive(drive_);
 1799              		.loc 13 142 5 is_stmt 1 view .LVU568
 142:ModeFilterDrive.h ****     svf_l_.SetDrive(drive_);
 1800              		.loc 13 142 18 is_stmt 0 view .LVU569
 1801 01d2 94ED9B0A 		vldr.32	s0, [r4, #620]
 1802 01d6 2046     		mov	r0, r4
 1803 01d8 FFF7FEFF 		bl	_ZN7daisysp3Svf6SetResEf
 1804              	.LVL96:
 143:ModeFilterDrive.h **** 
 1805              		.loc 13 143 5 is_stmt 1 view .LVU570
 143:ModeFilterDrive.h **** 
 1806              		.loc 13 143 20 is_stmt 0 view .LVU571
 1807 01dc 94ED9C0A 		vldr.32	s0, [r4, #624]
 1808 01e0 2046     		mov	r0, r4
 1809 01e2 FFF7FEFF 		bl	_ZN7daisysp3Svf8SetDriveEf
 1810              	.LVL97:
 145:ModeFilterDrive.h ****     svf_r_.SetRes(res_);
 1811              		.loc 13 145 5 is_stmt 1 view .LVU572
 145:ModeFilterDrive.h ****     svf_r_.SetRes(res_);
 1812              		.loc 13 145 19 is_stmt 0 view .LVU573
 1813 01e6 D4EDA77A 		vldr.32	s15, [r4, #668]
 1814 01ea 94ED9A0A 		vldr.32	s0, [r4, #616]
 1815 01ee 2846     		mov	r0, r5
ARM GAS  /var/folders/v1/156fk8j97zv9pzndh61fy7zm0000gn/T//cc9ANSfA.s 			page 59


 1816 01f0 20EE270A 		vmul.f32	s0, s0, s15
 1817 01f4 FFF7FEFF 		bl	_ZN7daisysp3Svf7SetFreqEf
 1818              	.LVL98:
 146:ModeFilterDrive.h ****     svf_r_.SetDrive(drive_);
 1819              		.loc 13 146 5 is_stmt 1 view .LVU574
 146:ModeFilterDrive.h ****     svf_r_.SetDrive(drive_);
 1820              		.loc 13 146 18 is_stmt 0 view .LVU575
 1821 01f8 94ED9B0A 		vldr.32	s0, [r4, #620]
 1822 01fc 2846     		mov	r0, r5
 1823 01fe FFF7FEFF 		bl	_ZN7daisysp3Svf6SetResEf
 1824              	.LVL99:
 147:ModeFilterDrive.h **** 
 1825              		.loc 13 147 5 is_stmt 1 view .LVU576
 147:ModeFilterDrive.h **** 
 1826              		.loc 13 147 20 is_stmt 0 view .LVU577
 1827 0202 94ED9C0A 		vldr.32	s0, [r4, #624]
 1828 0206 2846     		mov	r0, r5
 1829 0208 FFF7FEFF 		bl	_ZN7daisysp3Svf8SetDriveEf
 1830              	.LVL100:
 150:ModeFilterDrive.h ****     svf_l2_.SetRes(res_);
 1831              		.loc 13 150 5 is_stmt 1 view .LVU578
 150:ModeFilterDrive.h ****     svf_l2_.SetRes(res_);
 1832              		.loc 13 150 20 is_stmt 0 view .LVU579
 1833 020c 94ED9A0A 		vldr.32	s0, [r4, #616]
 1834 0210 3846     		mov	r0, r7
 1835 0212 FFF7FEFF 		bl	_ZN7daisysp3Svf7SetFreqEf
 1836              	.LVL101:
 151:ModeFilterDrive.h ****     svf_l2_.SetDrive(drive_);
 1837              		.loc 13 151 5 is_stmt 1 view .LVU580
 151:ModeFilterDrive.h ****     svf_l2_.SetDrive(drive_);
 1838              		.loc 13 151 19 is_stmt 0 view .LVU581
 1839 0216 94ED9B0A 		vldr.32	s0, [r4, #620]
 1840 021a 3846     		mov	r0, r7
 1841 021c FFF7FEFF 		bl	_ZN7daisysp3Svf6SetResEf
 1842              	.LVL102:
 152:ModeFilterDrive.h **** 
 1843              		.loc 13 152 5 is_stmt 1 view .LVU582
 152:ModeFilterDrive.h **** 
 1844              		.loc 13 152 21 is_stmt 0 view .LVU583
 1845 0220 94ED9C0A 		vldr.32	s0, [r4, #624]
 1846 0224 3846     		mov	r0, r7
 1847 0226 FFF7FEFF 		bl	_ZN7daisysp3Svf8SetDriveEf
 1848              	.LVL103:
 154:ModeFilterDrive.h ****     svf_r2_.SetRes(res_);
 1849              		.loc 13 154 5 is_stmt 1 view .LVU584
 154:ModeFilterDrive.h ****     svf_r2_.SetRes(res_);
 1850              		.loc 13 154 20 is_stmt 0 view .LVU585
 1851 022a D4EDA77A 		vldr.32	s15, [r4, #668]
 1852 022e 94ED9A0A 		vldr.32	s0, [r4, #616]
 1853 0232 3046     		mov	r0, r6
 1854 0234 20EE270A 		vmul.f32	s0, s0, s15
 1855 0238 FFF7FEFF 		bl	_ZN7daisysp3Svf7SetFreqEf
 1856              	.LVL104:
 155:ModeFilterDrive.h ****     svf_r2_.SetDrive(drive_);
 1857              		.loc 13 155 5 is_stmt 1 view .LVU586
 155:ModeFilterDrive.h ****     svf_r2_.SetDrive(drive_);
 1858              		.loc 13 155 19 is_stmt 0 view .LVU587
ARM GAS  /var/folders/v1/156fk8j97zv9pzndh61fy7zm0000gn/T//cc9ANSfA.s 			page 60


 1859 023c 94ED9B0A 		vldr.32	s0, [r4, #620]
 1860 0240 3046     		mov	r0, r6
 1861 0242 FFF7FEFF 		bl	_ZN7daisysp3Svf6SetResEf
 1862              	.LVL105:
 156:ModeFilterDrive.h **** 
 1863              		.loc 13 156 5 is_stmt 1 view .LVU588
 156:ModeFilterDrive.h **** 
 1864              		.loc 13 156 21 is_stmt 0 view .LVU589
 1865 0246 94ED9C0A 		vldr.32	s0, [r4, #624]
 1866 024a 3046     		mov	r0, r6
 1867 024c FFF7FEFF 		bl	_ZN7daisysp3Svf8SetDriveEf
 1868              	.LVL106:
 159:ModeFilterDrive.h ****     svf_r_.Process(driven_r);
 1869              		.loc 13 159 5 is_stmt 1 view .LVU590
 159:ModeFilterDrive.h ****     svf_r_.Process(driven_r);
 1870              		.loc 13 159 19 is_stmt 0 view .LVU591
 1871 0250 B0EE6D0A 		vmov.f32	s0, s27
 1872 0254 2046     		mov	r0, r4
 1873 0256 FFF7FEFF 		bl	_ZN7daisysp3Svf7ProcessEf
 1874              	.LVL107:
 160:ModeFilterDrive.h **** 
 1875              		.loc 13 160 5 is_stmt 1 view .LVU592
 160:ModeFilterDrive.h **** 
 1876              		.loc 13 160 19 is_stmt 0 view .LVU593
 1877 025a B0EE690A 		vmov.f32	s0, s19
 1878 025e 2846     		mov	r0, r5
 1879 0260 FFF7FEFF 		bl	_ZN7daisysp3Svf7ProcessEf
 1880              	.LVL108:
 164:ModeFilterDrive.h ****     if (filter_mode_ == FILTER_HP) {
 1881              		.loc 13 164 5 is_stmt 1 view .LVU594
 165:ModeFilterDrive.h ****       l1_out = svf_l_.High();
 1882              		.loc 13 165 5 view .LVU595
 165:ModeFilterDrive.h ****       l1_out = svf_l_.High();
 1883              		.loc 13 165 9 is_stmt 0 view .LVU596
 1884 0264 94F8A032 		ldrb	r3, [r4, #672]	@ zero_extendqisi2
 165:ModeFilterDrive.h ****       l1_out = svf_l_.High();
 1885              		.loc 13 165 5 view .LVU597
 1886 0268 002B     		cmp	r3, #0
 1887 026a 40F0C780 		bne	.L102
 166:ModeFilterDrive.h ****       r1_out = svf_r_.High();
 1888              		.loc 13 166 7 is_stmt 1 view .LVU598
 1889              	.LVL109:
 1890              	.LBB1333:
 1891              	.LBI1333:
  61:../DaisySP/Source/Filters/svf.h ****     /** highpass output
  62:../DaisySP/Source/Filters/svf.h ****         \return high pass output of the filter
  63:../DaisySP/Source/Filters/svf.h ****     */
  64:../DaisySP/Source/Filters/svf.h ****     inline float High() { return out_high_; }
 1892              		.loc 14 64 18 view .LVU599
 1893              	.LBB1334:
 1894              		.loc 14 64 27 view .LVU600
 1895              		.loc 14 64 34 is_stmt 0 view .LVU601
 1896 026e 94ED0D0A 		vldr.32	s0, [r4, #52]
 1897              	.LVL110:
 1898              		.loc 14 64 34 view .LVU602
 1899              	.LBE1334:
 1900              	.LBE1333:
ARM GAS  /var/folders/v1/156fk8j97zv9pzndh61fy7zm0000gn/T//cc9ANSfA.s 			page 61


 167:ModeFilterDrive.h ****     } else if (filter_mode_ == FILTER_BP) {
 1901              		.loc 13 167 7 is_stmt 1 view .LVU603
 1902              	.LBB1335:
 1903              	.LBI1335:
 1904              		.loc 14 64 18 view .LVU604
 1905              	.LBB1336:
 1906              		.loc 14 64 27 view .LVU605
 1907              		.loc 14 64 34 is_stmt 0 view .LVU606
 1908 0272 94ED208A 		vldr.32	s16, [r4, #128]
 1909              	.LVL111:
 1910              	.L103:
 1911              		.loc 14 64 34 view .LVU607
 1912              	.LBE1336:
 1913              	.LBE1335:
 176:ModeFilterDrive.h ****     svf_r2_.Process(r1_out);
 1914              		.loc 13 176 5 is_stmt 1 view .LVU608
 176:ModeFilterDrive.h ****     svf_r2_.Process(r1_out);
 1915              		.loc 13 176 20 is_stmt 0 view .LVU609
 1916 0276 3846     		mov	r0, r7
 1917 0278 FFF7FEFF 		bl	_ZN7daisysp3Svf7ProcessEf
 1918              	.LVL112:
 177:ModeFilterDrive.h **** 
 1919              		.loc 13 177 5 is_stmt 1 view .LVU610
 177:ModeFilterDrive.h **** 
 1920              		.loc 13 177 20 is_stmt 0 view .LVU611
 1921 027c B0EE480A 		vmov.f32	s0, s16
 1922 0280 3046     		mov	r0, r6
 1923 0282 FFF7FEFF 		bl	_ZN7daisysp3Svf7ProcessEf
 1924              	.LVL113:
 179:ModeFilterDrive.h ****     float r_filtered = 0.0f;
 1925              		.loc 13 179 5 is_stmt 1 view .LVU612
 180:ModeFilterDrive.h **** 
 1926              		.loc 13 180 5 view .LVU613
 182:ModeFilterDrive.h ****       l_filtered = svf_l2_.High();
 1927              		.loc 13 182 5 view .LVU614
 182:ModeFilterDrive.h ****       l_filtered = svf_l2_.High();
 1928              		.loc 13 182 9 is_stmt 0 view .LVU615
 1929 0286 94F8A032 		ldrb	r3, [r4, #672]	@ zero_extendqisi2
 182:ModeFilterDrive.h ****       l_filtered = svf_l2_.High();
 1930              		.loc 13 182 5 view .LVU616
 1931 028a 002B     		cmp	r3, #0
 1932 028c 40F09380 		bne	.L105
 183:ModeFilterDrive.h ****       r_filtered = svf_r2_.High();
 1933              		.loc 13 183 7 is_stmt 1 view .LVU617
 1934              	.LVL114:
 1935              	.LBB1337:
 1936              	.LBI1337:
 1937              		.loc 14 64 18 view .LVU618
 1938              	.LBB1338:
 1939              		.loc 14 64 27 view .LVU619
 1940              		.loc 14 64 34 is_stmt 0 view .LVU620
 1941 0290 94ED338A 		vldr.32	s16, [r4, #204]
 1942              	.LVL115:
 1943              		.loc 14 64 34 view .LVU621
 1944              	.LBE1338:
 1945              	.LBE1337:
 184:ModeFilterDrive.h ****     } else if (filter_mode_ == FILTER_BP) { // BP
ARM GAS  /var/folders/v1/156fk8j97zv9pzndh61fy7zm0000gn/T//cc9ANSfA.s 			page 62


 1946              		.loc 13 184 7 is_stmt 1 view .LVU622
 1947              	.LBB1339:
 1948              	.LBI1339:
 1949              		.loc 14 64 18 view .LVU623
 1950              	.LBB1340:
 1951              		.loc 14 64 27 view .LVU624
 1952              		.loc 14 64 34 is_stmt 0 view .LVU625
 1953 0294 94ED469A 		vldr.32	s18, [r4, #280]
 1954              	.LVL116:
 1955              	.L106:
 1956              		.loc 14 64 34 view .LVU626
 1957              	.LBE1340:
 1958              	.LBE1339:
 196:ModeFilterDrive.h **** 
 1959              		.loc 13 196 5 is_stmt 1 view .LVU627
 1960 0298 B5EE40AA 		vcmp.f32	s20, #0
 1961 029c F1EE10FA 		vmrs	APSR_nzcv, FPSCR
 1962 02a0 00F17D83 		bmi	.L179
 196:ModeFilterDrive.h **** 
 1963              		.loc 13 196 35 is_stmt 0 view .LVU628
 1964 02a4 F1EECA7A 		vsqrt.f32	s15, s20
 1965              	.L110:
 196:ModeFilterDrive.h **** 
 1966              		.loc 13 196 46 discriminator 1 view .LVU629
 1967 02a8 B7EE007A 		vmov.f32	s14, #1.0e+0
 1968 02ac C7EE278A 		vdiv.f32	s17, s14, s15
 1969              	.LVL117:
 199:ModeFilterDrive.h ****     r_filtered *= comp_gain;
 1970              		.loc 13 199 5 is_stmt 1 view .LVU630
 200:ModeFilterDrive.h **** 
 1971              		.loc 13 200 5 view .LVU631
 203:ModeFilterDrive.h ****     float final_r = tanhf(r_filtered);
 1972              		.loc 13 203 5 view .LVU632
 203:ModeFilterDrive.h ****     float final_r = tanhf(r_filtered);
 1973              		.loc 13 203 26 is_stmt 0 view .LVU633
 1974 02b0 28EE280A 		vmul.f32	s0, s16, s17
 1975              	.LVL118:
 203:ModeFilterDrive.h ****     float final_r = tanhf(r_filtered);
 1976              		.loc 13 203 26 view .LVU634
 1977 02b4 FFF7FEFF 		bl	tanhf
 1978              	.LVL119:
 203:ModeFilterDrive.h ****     float final_r = tanhf(r_filtered);
 1979              		.loc 13 203 26 view .LVU635
 1980 02b8 B0EE408A 		vmov.f32	s16, s0
 1981              	.LVL120:
 204:ModeFilterDrive.h **** 
 1982              		.loc 13 204 26 view .LVU636
 1983 02bc 29EE280A 		vmul.f32	s0, s18, s17
 1984              	.LVL121:
 204:ModeFilterDrive.h **** 
 1985              		.loc 13 204 5 is_stmt 1 view .LVU637
 204:ModeFilterDrive.h **** 
 1986              		.loc 13 204 26 is_stmt 0 view .LVU638
 1987 02c0 FFF7FEFF 		bl	tanhf
 1988              	.LVL122:
 207:ModeFilterDrive.h ****       Init(fs_);
 1989              		.loc 13 207 5 is_stmt 1 view .LVU639
ARM GAS  /var/folders/v1/156fk8j97zv9pzndh61fy7zm0000gn/T//cc9ANSfA.s 			page 63


 207:ModeFilterDrive.h ****       Init(fs_);
 1990              		.loc 13 207 60 is_stmt 0 discriminator 1 view .LVU640
 1991 02c4 B4EE488A 		vcmp.f32	s16, s16
 1992 02c8 F1EE10FA 		vmrs	APSR_nzcv, FPSCR
 1993 02cc 14D6     		bvs	.L111
 1994              	.LVL123:
 1995              	.LBB1341:
 1996              	.LBI1341:
 1997              		.file 17 "/Applications/ArmGNUToolchain/14.3.rel1/arm-none-eabi/arm-none-eabi/include/c++/14.3.1/c
   1:/Applications/ArmGNUToolchain/14.3.rel1/arm-none-eabi/arm-none-eabi/include/c++/14.3.1/cmath **** // -*- C++ -*- C forwarding header.
   2:/Applications/ArmGNUToolchain/14.3.rel1/arm-none-eabi/arm-none-eabi/include/c++/14.3.1/cmath **** 
   3:/Applications/ArmGNUToolchain/14.3.rel1/arm-none-eabi/arm-none-eabi/include/c++/14.3.1/cmath **** // Copyright (C) 1997-2024 Free Software Foundation, Inc.
   4:/Applications/ArmGNUToolchain/14.3.rel1/arm-none-eabi/arm-none-eabi/include/c++/14.3.1/cmath **** //
   5:/Applications/ArmGNUToolchain/14.3.rel1/arm-none-eabi/arm-none-eabi/include/c++/14.3.1/cmath **** // This file is part of the GNU ISO C++ Library.  This library is free
   6:/Applications/ArmGNUToolchain/14.3.rel1/arm-none-eabi/arm-none-eabi/include/c++/14.3.1/cmath **** // software; you can redistribute it and/or modify it under the
   7:/Applications/ArmGNUToolchain/14.3.rel1/arm-none-eabi/arm-none-eabi/include/c++/14.3.1/cmath **** // terms of the GNU General Public License as published by the
   8:/Applications/ArmGNUToolchain/14.3.rel1/arm-none-eabi/arm-none-eabi/include/c++/14.3.1/cmath **** // Free Software Foundation; either version 3, or (at your option)
   9:/Applications/ArmGNUToolchain/14.3.rel1/arm-none-eabi/arm-none-eabi/include/c++/14.3.1/cmath **** // any later version.
  10:/Applications/ArmGNUToolchain/14.3.rel1/arm-none-eabi/arm-none-eabi/include/c++/14.3.1/cmath **** 
  11:/Applications/ArmGNUToolchain/14.3.rel1/arm-none-eabi/arm-none-eabi/include/c++/14.3.1/cmath **** // This library is distributed in the hope that it will be useful,
  12:/Applications/ArmGNUToolchain/14.3.rel1/arm-none-eabi/arm-none-eabi/include/c++/14.3.1/cmath **** // but WITHOUT ANY WARRANTY; without even the implied warranty of
  13:/Applications/ArmGNUToolchain/14.3.rel1/arm-none-eabi/arm-none-eabi/include/c++/14.3.1/cmath **** // MERCHANTABILITY or FITNESS FOR A PARTICULAR PURPOSE.  See the
  14:/Applications/ArmGNUToolchain/14.3.rel1/arm-none-eabi/arm-none-eabi/include/c++/14.3.1/cmath **** // GNU General Public License for more details.
  15:/Applications/ArmGNUToolchain/14.3.rel1/arm-none-eabi/arm-none-eabi/include/c++/14.3.1/cmath **** 
  16:/Applications/ArmGNUToolchain/14.3.rel1/arm-none-eabi/arm-none-eabi/include/c++/14.3.1/cmath **** // Under Section 7 of GPL version 3, you are granted additional
  17:/Applications/ArmGNUToolchain/14.3.rel1/arm-none-eabi/arm-none-eabi/include/c++/14.3.1/cmath **** // permissions described in the GCC Runtime Library Exception, version
  18:/Applications/ArmGNUToolchain/14.3.rel1/arm-none-eabi/arm-none-eabi/include/c++/14.3.1/cmath **** // 3.1, as published by the Free Software Foundation.
  19:/Applications/ArmGNUToolchain/14.3.rel1/arm-none-eabi/arm-none-eabi/include/c++/14.3.1/cmath **** 
  20:/Applications/ArmGNUToolchain/14.3.rel1/arm-none-eabi/arm-none-eabi/include/c++/14.3.1/cmath **** // You should have received a copy of the GNU General Public License and
  21:/Applications/ArmGNUToolchain/14.3.rel1/arm-none-eabi/arm-none-eabi/include/c++/14.3.1/cmath **** // a copy of the GCC Runtime Library Exception along with this program;
  22:/Applications/ArmGNUToolchain/14.3.rel1/arm-none-eabi/arm-none-eabi/include/c++/14.3.1/cmath **** // see the files COPYING3 and COPYING.RUNTIME respectively.  If not, see
  23:/Applications/ArmGNUToolchain/14.3.rel1/arm-none-eabi/arm-none-eabi/include/c++/14.3.1/cmath **** // <http://www.gnu.org/licenses/>.
  24:/Applications/ArmGNUToolchain/14.3.rel1/arm-none-eabi/arm-none-eabi/include/c++/14.3.1/cmath **** 
  25:/Applications/ArmGNUToolchain/14.3.rel1/arm-none-eabi/arm-none-eabi/include/c++/14.3.1/cmath **** /** @file include/cmath
  26:/Applications/ArmGNUToolchain/14.3.rel1/arm-none-eabi/arm-none-eabi/include/c++/14.3.1/cmath ****  *  This is a Standard C++ Library file.  You should @c \#include this file
  27:/Applications/ArmGNUToolchain/14.3.rel1/arm-none-eabi/arm-none-eabi/include/c++/14.3.1/cmath ****  *  in your programs, rather than any of the @a *.h implementation files.
  28:/Applications/ArmGNUToolchain/14.3.rel1/arm-none-eabi/arm-none-eabi/include/c++/14.3.1/cmath ****  *
  29:/Applications/ArmGNUToolchain/14.3.rel1/arm-none-eabi/arm-none-eabi/include/c++/14.3.1/cmath ****  *  This is the C++ version of the Standard C Library header @c math.h,
  30:/Applications/ArmGNUToolchain/14.3.rel1/arm-none-eabi/arm-none-eabi/include/c++/14.3.1/cmath ****  *  and its contents are (mostly) the same as that header, but are all
  31:/Applications/ArmGNUToolchain/14.3.rel1/arm-none-eabi/arm-none-eabi/include/c++/14.3.1/cmath ****  *  contained in the namespace @c std (except for names which are defined
  32:/Applications/ArmGNUToolchain/14.3.rel1/arm-none-eabi/arm-none-eabi/include/c++/14.3.1/cmath ****  *  as macros in C).
  33:/Applications/ArmGNUToolchain/14.3.rel1/arm-none-eabi/arm-none-eabi/include/c++/14.3.1/cmath ****  */
  34:/Applications/ArmGNUToolchain/14.3.rel1/arm-none-eabi/arm-none-eabi/include/c++/14.3.1/cmath **** 
  35:/Applications/ArmGNUToolchain/14.3.rel1/arm-none-eabi/arm-none-eabi/include/c++/14.3.1/cmath **** //
  36:/Applications/ArmGNUToolchain/14.3.rel1/arm-none-eabi/arm-none-eabi/include/c++/14.3.1/cmath **** // ISO C++ 14882: 26.5  C library
  37:/Applications/ArmGNUToolchain/14.3.rel1/arm-none-eabi/arm-none-eabi/include/c++/14.3.1/cmath **** //
  38:/Applications/ArmGNUToolchain/14.3.rel1/arm-none-eabi/arm-none-eabi/include/c++/14.3.1/cmath **** 
  39:/Applications/ArmGNUToolchain/14.3.rel1/arm-none-eabi/arm-none-eabi/include/c++/14.3.1/cmath **** #pragma GCC system_header
  40:/Applications/ArmGNUToolchain/14.3.rel1/arm-none-eabi/arm-none-eabi/include/c++/14.3.1/cmath **** 
  41:/Applications/ArmGNUToolchain/14.3.rel1/arm-none-eabi/arm-none-eabi/include/c++/14.3.1/cmath **** #include <bits/requires_hosted.h>
  42:/Applications/ArmGNUToolchain/14.3.rel1/arm-none-eabi/arm-none-eabi/include/c++/14.3.1/cmath **** 
  43:/Applications/ArmGNUToolchain/14.3.rel1/arm-none-eabi/arm-none-eabi/include/c++/14.3.1/cmath **** #include <bits/c++config.h>
  44:/Applications/ArmGNUToolchain/14.3.rel1/arm-none-eabi/arm-none-eabi/include/c++/14.3.1/cmath **** #include <bits/cpp_type_traits.h>
  45:/Applications/ArmGNUToolchain/14.3.rel1/arm-none-eabi/arm-none-eabi/include/c++/14.3.1/cmath **** #include <ext/type_traits.h>
  46:/Applications/ArmGNUToolchain/14.3.rel1/arm-none-eabi/arm-none-eabi/include/c++/14.3.1/cmath **** #define _GLIBCXX_INCLUDE_NEXT_C_HEADERS
  47:/Applications/ArmGNUToolchain/14.3.rel1/arm-none-eabi/arm-none-eabi/include/c++/14.3.1/cmath **** #include_next <math.h>
  48:/Applications/ArmGNUToolchain/14.3.rel1/arm-none-eabi/arm-none-eabi/include/c++/14.3.1/cmath **** #undef _GLIBCXX_INCLUDE_NEXT_C_HEADERS
ARM GAS  /var/folders/v1/156fk8j97zv9pzndh61fy7zm0000gn/T//cc9ANSfA.s 			page 64


  49:/Applications/ArmGNUToolchain/14.3.rel1/arm-none-eabi/arm-none-eabi/include/c++/14.3.1/cmath **** #include <bits/std_abs.h>
  50:/Applications/ArmGNUToolchain/14.3.rel1/arm-none-eabi/arm-none-eabi/include/c++/14.3.1/cmath **** 
  51:/Applications/ArmGNUToolchain/14.3.rel1/arm-none-eabi/arm-none-eabi/include/c++/14.3.1/cmath **** #ifndef _GLIBCXX_CMATH
  52:/Applications/ArmGNUToolchain/14.3.rel1/arm-none-eabi/arm-none-eabi/include/c++/14.3.1/cmath **** #define _GLIBCXX_CMATH 1
  53:/Applications/ArmGNUToolchain/14.3.rel1/arm-none-eabi/arm-none-eabi/include/c++/14.3.1/cmath **** 
  54:/Applications/ArmGNUToolchain/14.3.rel1/arm-none-eabi/arm-none-eabi/include/c++/14.3.1/cmath **** #define __glibcxx_want_hypot
  55:/Applications/ArmGNUToolchain/14.3.rel1/arm-none-eabi/arm-none-eabi/include/c++/14.3.1/cmath **** #define __glibcxx_want_interpolate
  56:/Applications/ArmGNUToolchain/14.3.rel1/arm-none-eabi/arm-none-eabi/include/c++/14.3.1/cmath **** #include <bits/version.h>
  57:/Applications/ArmGNUToolchain/14.3.rel1/arm-none-eabi/arm-none-eabi/include/c++/14.3.1/cmath **** 
  58:/Applications/ArmGNUToolchain/14.3.rel1/arm-none-eabi/arm-none-eabi/include/c++/14.3.1/cmath **** // Get rid of those macros defined in <math.h> in lieu of real functions.
  59:/Applications/ArmGNUToolchain/14.3.rel1/arm-none-eabi/arm-none-eabi/include/c++/14.3.1/cmath **** #undef div
  60:/Applications/ArmGNUToolchain/14.3.rel1/arm-none-eabi/arm-none-eabi/include/c++/14.3.1/cmath **** #undef acos
  61:/Applications/ArmGNUToolchain/14.3.rel1/arm-none-eabi/arm-none-eabi/include/c++/14.3.1/cmath **** #undef asin
  62:/Applications/ArmGNUToolchain/14.3.rel1/arm-none-eabi/arm-none-eabi/include/c++/14.3.1/cmath **** #undef atan
  63:/Applications/ArmGNUToolchain/14.3.rel1/arm-none-eabi/arm-none-eabi/include/c++/14.3.1/cmath **** #undef atan2
  64:/Applications/ArmGNUToolchain/14.3.rel1/arm-none-eabi/arm-none-eabi/include/c++/14.3.1/cmath **** #undef ceil
  65:/Applications/ArmGNUToolchain/14.3.rel1/arm-none-eabi/arm-none-eabi/include/c++/14.3.1/cmath **** #undef cos
  66:/Applications/ArmGNUToolchain/14.3.rel1/arm-none-eabi/arm-none-eabi/include/c++/14.3.1/cmath **** #undef cosh
  67:/Applications/ArmGNUToolchain/14.3.rel1/arm-none-eabi/arm-none-eabi/include/c++/14.3.1/cmath **** #undef exp
  68:/Applications/ArmGNUToolchain/14.3.rel1/arm-none-eabi/arm-none-eabi/include/c++/14.3.1/cmath **** #undef fabs
  69:/Applications/ArmGNUToolchain/14.3.rel1/arm-none-eabi/arm-none-eabi/include/c++/14.3.1/cmath **** #undef floor
  70:/Applications/ArmGNUToolchain/14.3.rel1/arm-none-eabi/arm-none-eabi/include/c++/14.3.1/cmath **** #undef fmod
  71:/Applications/ArmGNUToolchain/14.3.rel1/arm-none-eabi/arm-none-eabi/include/c++/14.3.1/cmath **** #undef frexp
  72:/Applications/ArmGNUToolchain/14.3.rel1/arm-none-eabi/arm-none-eabi/include/c++/14.3.1/cmath **** #undef ldexp
  73:/Applications/ArmGNUToolchain/14.3.rel1/arm-none-eabi/arm-none-eabi/include/c++/14.3.1/cmath **** #undef log
  74:/Applications/ArmGNUToolchain/14.3.rel1/arm-none-eabi/arm-none-eabi/include/c++/14.3.1/cmath **** #undef log10
  75:/Applications/ArmGNUToolchain/14.3.rel1/arm-none-eabi/arm-none-eabi/include/c++/14.3.1/cmath **** #undef modf
  76:/Applications/ArmGNUToolchain/14.3.rel1/arm-none-eabi/arm-none-eabi/include/c++/14.3.1/cmath **** #undef pow
  77:/Applications/ArmGNUToolchain/14.3.rel1/arm-none-eabi/arm-none-eabi/include/c++/14.3.1/cmath **** #undef sin
  78:/Applications/ArmGNUToolchain/14.3.rel1/arm-none-eabi/arm-none-eabi/include/c++/14.3.1/cmath **** #undef sinh
  79:/Applications/ArmGNUToolchain/14.3.rel1/arm-none-eabi/arm-none-eabi/include/c++/14.3.1/cmath **** #undef sqrt
  80:/Applications/ArmGNUToolchain/14.3.rel1/arm-none-eabi/arm-none-eabi/include/c++/14.3.1/cmath **** #undef tan
  81:/Applications/ArmGNUToolchain/14.3.rel1/arm-none-eabi/arm-none-eabi/include/c++/14.3.1/cmath **** #undef tanh
  82:/Applications/ArmGNUToolchain/14.3.rel1/arm-none-eabi/arm-none-eabi/include/c++/14.3.1/cmath **** 
  83:/Applications/ArmGNUToolchain/14.3.rel1/arm-none-eabi/arm-none-eabi/include/c++/14.3.1/cmath **** extern "C++"
  84:/Applications/ArmGNUToolchain/14.3.rel1/arm-none-eabi/arm-none-eabi/include/c++/14.3.1/cmath **** {
  85:/Applications/ArmGNUToolchain/14.3.rel1/arm-none-eabi/arm-none-eabi/include/c++/14.3.1/cmath **** namespace std _GLIBCXX_VISIBILITY(default)
  86:/Applications/ArmGNUToolchain/14.3.rel1/arm-none-eabi/arm-none-eabi/include/c++/14.3.1/cmath **** {
  87:/Applications/ArmGNUToolchain/14.3.rel1/arm-none-eabi/arm-none-eabi/include/c++/14.3.1/cmath **** _GLIBCXX_BEGIN_NAMESPACE_VERSION
  88:/Applications/ArmGNUToolchain/14.3.rel1/arm-none-eabi/arm-none-eabi/include/c++/14.3.1/cmath **** 
  89:/Applications/ArmGNUToolchain/14.3.rel1/arm-none-eabi/arm-none-eabi/include/c++/14.3.1/cmath ****   using ::acos;
  90:/Applications/ArmGNUToolchain/14.3.rel1/arm-none-eabi/arm-none-eabi/include/c++/14.3.1/cmath **** 
  91:/Applications/ArmGNUToolchain/14.3.rel1/arm-none-eabi/arm-none-eabi/include/c++/14.3.1/cmath **** #ifndef __CORRECT_ISO_CPP_MATH_H_PROTO
  92:/Applications/ArmGNUToolchain/14.3.rel1/arm-none-eabi/arm-none-eabi/include/c++/14.3.1/cmath ****   inline _GLIBCXX_CONSTEXPR float
  93:/Applications/ArmGNUToolchain/14.3.rel1/arm-none-eabi/arm-none-eabi/include/c++/14.3.1/cmath ****   acos(float __x)
  94:/Applications/ArmGNUToolchain/14.3.rel1/arm-none-eabi/arm-none-eabi/include/c++/14.3.1/cmath ****   { return __builtin_acosf(__x); }
  95:/Applications/ArmGNUToolchain/14.3.rel1/arm-none-eabi/arm-none-eabi/include/c++/14.3.1/cmath **** 
  96:/Applications/ArmGNUToolchain/14.3.rel1/arm-none-eabi/arm-none-eabi/include/c++/14.3.1/cmath ****   inline _GLIBCXX_CONSTEXPR long double
  97:/Applications/ArmGNUToolchain/14.3.rel1/arm-none-eabi/arm-none-eabi/include/c++/14.3.1/cmath ****   acos(long double __x)
  98:/Applications/ArmGNUToolchain/14.3.rel1/arm-none-eabi/arm-none-eabi/include/c++/14.3.1/cmath ****   { return __builtin_acosl(__x); }
  99:/Applications/ArmGNUToolchain/14.3.rel1/arm-none-eabi/arm-none-eabi/include/c++/14.3.1/cmath **** #endif
 100:/Applications/ArmGNUToolchain/14.3.rel1/arm-none-eabi/arm-none-eabi/include/c++/14.3.1/cmath **** 
 101:/Applications/ArmGNUToolchain/14.3.rel1/arm-none-eabi/arm-none-eabi/include/c++/14.3.1/cmath ****   template<typename _Tp>
 102:/Applications/ArmGNUToolchain/14.3.rel1/arm-none-eabi/arm-none-eabi/include/c++/14.3.1/cmath ****     inline _GLIBCXX_CONSTEXPR
 103:/Applications/ArmGNUToolchain/14.3.rel1/arm-none-eabi/arm-none-eabi/include/c++/14.3.1/cmath ****     typename __gnu_cxx::__enable_if<__is_integer<_Tp>::__value, 
 104:/Applications/ArmGNUToolchain/14.3.rel1/arm-none-eabi/arm-none-eabi/include/c++/14.3.1/cmath ****                                     double>::__type
 105:/Applications/ArmGNUToolchain/14.3.rel1/arm-none-eabi/arm-none-eabi/include/c++/14.3.1/cmath ****     acos(_Tp __x)
ARM GAS  /var/folders/v1/156fk8j97zv9pzndh61fy7zm0000gn/T//cc9ANSfA.s 			page 65


 106:/Applications/ArmGNUToolchain/14.3.rel1/arm-none-eabi/arm-none-eabi/include/c++/14.3.1/cmath ****     { return __builtin_acos(__x); }
 107:/Applications/ArmGNUToolchain/14.3.rel1/arm-none-eabi/arm-none-eabi/include/c++/14.3.1/cmath **** 
 108:/Applications/ArmGNUToolchain/14.3.rel1/arm-none-eabi/arm-none-eabi/include/c++/14.3.1/cmath ****   using ::asin;
 109:/Applications/ArmGNUToolchain/14.3.rel1/arm-none-eabi/arm-none-eabi/include/c++/14.3.1/cmath **** 
 110:/Applications/ArmGNUToolchain/14.3.rel1/arm-none-eabi/arm-none-eabi/include/c++/14.3.1/cmath **** #ifndef __CORRECT_ISO_CPP_MATH_H_PROTO
 111:/Applications/ArmGNUToolchain/14.3.rel1/arm-none-eabi/arm-none-eabi/include/c++/14.3.1/cmath ****   inline _GLIBCXX_CONSTEXPR float
 112:/Applications/ArmGNUToolchain/14.3.rel1/arm-none-eabi/arm-none-eabi/include/c++/14.3.1/cmath ****   asin(float __x)
 113:/Applications/ArmGNUToolchain/14.3.rel1/arm-none-eabi/arm-none-eabi/include/c++/14.3.1/cmath ****   { return __builtin_asinf(__x); }
 114:/Applications/ArmGNUToolchain/14.3.rel1/arm-none-eabi/arm-none-eabi/include/c++/14.3.1/cmath **** 
 115:/Applications/ArmGNUToolchain/14.3.rel1/arm-none-eabi/arm-none-eabi/include/c++/14.3.1/cmath ****   inline _GLIBCXX_CONSTEXPR long double
 116:/Applications/ArmGNUToolchain/14.3.rel1/arm-none-eabi/arm-none-eabi/include/c++/14.3.1/cmath ****   asin(long double __x)
 117:/Applications/ArmGNUToolchain/14.3.rel1/arm-none-eabi/arm-none-eabi/include/c++/14.3.1/cmath ****   { return __builtin_asinl(__x); }
 118:/Applications/ArmGNUToolchain/14.3.rel1/arm-none-eabi/arm-none-eabi/include/c++/14.3.1/cmath **** #endif
 119:/Applications/ArmGNUToolchain/14.3.rel1/arm-none-eabi/arm-none-eabi/include/c++/14.3.1/cmath **** 
 120:/Applications/ArmGNUToolchain/14.3.rel1/arm-none-eabi/arm-none-eabi/include/c++/14.3.1/cmath ****   template<typename _Tp>
 121:/Applications/ArmGNUToolchain/14.3.rel1/arm-none-eabi/arm-none-eabi/include/c++/14.3.1/cmath ****     inline _GLIBCXX_CONSTEXPR
 122:/Applications/ArmGNUToolchain/14.3.rel1/arm-none-eabi/arm-none-eabi/include/c++/14.3.1/cmath ****     typename __gnu_cxx::__enable_if<__is_integer<_Tp>::__value,
 123:/Applications/ArmGNUToolchain/14.3.rel1/arm-none-eabi/arm-none-eabi/include/c++/14.3.1/cmath ****                                     double>::__type
 124:/Applications/ArmGNUToolchain/14.3.rel1/arm-none-eabi/arm-none-eabi/include/c++/14.3.1/cmath ****     asin(_Tp __x)
 125:/Applications/ArmGNUToolchain/14.3.rel1/arm-none-eabi/arm-none-eabi/include/c++/14.3.1/cmath ****     { return __builtin_asin(__x); }
 126:/Applications/ArmGNUToolchain/14.3.rel1/arm-none-eabi/arm-none-eabi/include/c++/14.3.1/cmath **** 
 127:/Applications/ArmGNUToolchain/14.3.rel1/arm-none-eabi/arm-none-eabi/include/c++/14.3.1/cmath ****   using ::atan;
 128:/Applications/ArmGNUToolchain/14.3.rel1/arm-none-eabi/arm-none-eabi/include/c++/14.3.1/cmath **** 
 129:/Applications/ArmGNUToolchain/14.3.rel1/arm-none-eabi/arm-none-eabi/include/c++/14.3.1/cmath **** #ifndef __CORRECT_ISO_CPP_MATH_H_PROTO
 130:/Applications/ArmGNUToolchain/14.3.rel1/arm-none-eabi/arm-none-eabi/include/c++/14.3.1/cmath ****   inline _GLIBCXX_CONSTEXPR float
 131:/Applications/ArmGNUToolchain/14.3.rel1/arm-none-eabi/arm-none-eabi/include/c++/14.3.1/cmath ****   atan(float __x)
 132:/Applications/ArmGNUToolchain/14.3.rel1/arm-none-eabi/arm-none-eabi/include/c++/14.3.1/cmath ****   { return __builtin_atanf(__x); }
 133:/Applications/ArmGNUToolchain/14.3.rel1/arm-none-eabi/arm-none-eabi/include/c++/14.3.1/cmath **** 
 134:/Applications/ArmGNUToolchain/14.3.rel1/arm-none-eabi/arm-none-eabi/include/c++/14.3.1/cmath ****   inline _GLIBCXX_CONSTEXPR long double
 135:/Applications/ArmGNUToolchain/14.3.rel1/arm-none-eabi/arm-none-eabi/include/c++/14.3.1/cmath ****   atan(long double __x)
 136:/Applications/ArmGNUToolchain/14.3.rel1/arm-none-eabi/arm-none-eabi/include/c++/14.3.1/cmath ****   { return __builtin_atanl(__x); }
 137:/Applications/ArmGNUToolchain/14.3.rel1/arm-none-eabi/arm-none-eabi/include/c++/14.3.1/cmath **** #endif
 138:/Applications/ArmGNUToolchain/14.3.rel1/arm-none-eabi/arm-none-eabi/include/c++/14.3.1/cmath **** 
 139:/Applications/ArmGNUToolchain/14.3.rel1/arm-none-eabi/arm-none-eabi/include/c++/14.3.1/cmath ****   template<typename _Tp>
 140:/Applications/ArmGNUToolchain/14.3.rel1/arm-none-eabi/arm-none-eabi/include/c++/14.3.1/cmath ****     inline _GLIBCXX_CONSTEXPR
 141:/Applications/ArmGNUToolchain/14.3.rel1/arm-none-eabi/arm-none-eabi/include/c++/14.3.1/cmath ****     typename __gnu_cxx::__enable_if<__is_integer<_Tp>::__value,
 142:/Applications/ArmGNUToolchain/14.3.rel1/arm-none-eabi/arm-none-eabi/include/c++/14.3.1/cmath ****                                     double>::__type
 143:/Applications/ArmGNUToolchain/14.3.rel1/arm-none-eabi/arm-none-eabi/include/c++/14.3.1/cmath ****     atan(_Tp __x)
 144:/Applications/ArmGNUToolchain/14.3.rel1/arm-none-eabi/arm-none-eabi/include/c++/14.3.1/cmath ****     { return __builtin_atan(__x); }
 145:/Applications/ArmGNUToolchain/14.3.rel1/arm-none-eabi/arm-none-eabi/include/c++/14.3.1/cmath **** 
 146:/Applications/ArmGNUToolchain/14.3.rel1/arm-none-eabi/arm-none-eabi/include/c++/14.3.1/cmath ****   using ::atan2;
 147:/Applications/ArmGNUToolchain/14.3.rel1/arm-none-eabi/arm-none-eabi/include/c++/14.3.1/cmath **** 
 148:/Applications/ArmGNUToolchain/14.3.rel1/arm-none-eabi/arm-none-eabi/include/c++/14.3.1/cmath **** #ifndef __CORRECT_ISO_CPP_MATH_H_PROTO
 149:/Applications/ArmGNUToolchain/14.3.rel1/arm-none-eabi/arm-none-eabi/include/c++/14.3.1/cmath ****   inline _GLIBCXX_CONSTEXPR float
 150:/Applications/ArmGNUToolchain/14.3.rel1/arm-none-eabi/arm-none-eabi/include/c++/14.3.1/cmath ****   atan2(float __y, float __x)
 151:/Applications/ArmGNUToolchain/14.3.rel1/arm-none-eabi/arm-none-eabi/include/c++/14.3.1/cmath ****   { return __builtin_atan2f(__y, __x); }
 152:/Applications/ArmGNUToolchain/14.3.rel1/arm-none-eabi/arm-none-eabi/include/c++/14.3.1/cmath **** 
 153:/Applications/ArmGNUToolchain/14.3.rel1/arm-none-eabi/arm-none-eabi/include/c++/14.3.1/cmath ****   inline _GLIBCXX_CONSTEXPR long double
 154:/Applications/ArmGNUToolchain/14.3.rel1/arm-none-eabi/arm-none-eabi/include/c++/14.3.1/cmath ****   atan2(long double __y, long double __x)
 155:/Applications/ArmGNUToolchain/14.3.rel1/arm-none-eabi/arm-none-eabi/include/c++/14.3.1/cmath ****   { return __builtin_atan2l(__y, __x); }
 156:/Applications/ArmGNUToolchain/14.3.rel1/arm-none-eabi/arm-none-eabi/include/c++/14.3.1/cmath **** #endif
 157:/Applications/ArmGNUToolchain/14.3.rel1/arm-none-eabi/arm-none-eabi/include/c++/14.3.1/cmath **** 
 158:/Applications/ArmGNUToolchain/14.3.rel1/arm-none-eabi/arm-none-eabi/include/c++/14.3.1/cmath ****   using ::ceil;
 159:/Applications/ArmGNUToolchain/14.3.rel1/arm-none-eabi/arm-none-eabi/include/c++/14.3.1/cmath **** 
 160:/Applications/ArmGNUToolchain/14.3.rel1/arm-none-eabi/arm-none-eabi/include/c++/14.3.1/cmath **** #ifndef __CORRECT_ISO_CPP_MATH_H_PROTO
 161:/Applications/ArmGNUToolchain/14.3.rel1/arm-none-eabi/arm-none-eabi/include/c++/14.3.1/cmath ****   inline _GLIBCXX_CONSTEXPR float
 162:/Applications/ArmGNUToolchain/14.3.rel1/arm-none-eabi/arm-none-eabi/include/c++/14.3.1/cmath ****   ceil(float __x)
ARM GAS  /var/folders/v1/156fk8j97zv9pzndh61fy7zm0000gn/T//cc9ANSfA.s 			page 66


 163:/Applications/ArmGNUToolchain/14.3.rel1/arm-none-eabi/arm-none-eabi/include/c++/14.3.1/cmath ****   { return __builtin_ceilf(__x); }
 164:/Applications/ArmGNUToolchain/14.3.rel1/arm-none-eabi/arm-none-eabi/include/c++/14.3.1/cmath **** 
 165:/Applications/ArmGNUToolchain/14.3.rel1/arm-none-eabi/arm-none-eabi/include/c++/14.3.1/cmath ****   inline _GLIBCXX_CONSTEXPR long double
 166:/Applications/ArmGNUToolchain/14.3.rel1/arm-none-eabi/arm-none-eabi/include/c++/14.3.1/cmath ****   ceil(long double __x)
 167:/Applications/ArmGNUToolchain/14.3.rel1/arm-none-eabi/arm-none-eabi/include/c++/14.3.1/cmath ****   { return __builtin_ceill(__x); }
 168:/Applications/ArmGNUToolchain/14.3.rel1/arm-none-eabi/arm-none-eabi/include/c++/14.3.1/cmath **** #endif
 169:/Applications/ArmGNUToolchain/14.3.rel1/arm-none-eabi/arm-none-eabi/include/c++/14.3.1/cmath **** 
 170:/Applications/ArmGNUToolchain/14.3.rel1/arm-none-eabi/arm-none-eabi/include/c++/14.3.1/cmath ****   template<typename _Tp>
 171:/Applications/ArmGNUToolchain/14.3.rel1/arm-none-eabi/arm-none-eabi/include/c++/14.3.1/cmath ****     inline _GLIBCXX_CONSTEXPR
 172:/Applications/ArmGNUToolchain/14.3.rel1/arm-none-eabi/arm-none-eabi/include/c++/14.3.1/cmath ****     typename __gnu_cxx::__enable_if<__is_integer<_Tp>::__value, 
 173:/Applications/ArmGNUToolchain/14.3.rel1/arm-none-eabi/arm-none-eabi/include/c++/14.3.1/cmath ****                                     double>::__type
 174:/Applications/ArmGNUToolchain/14.3.rel1/arm-none-eabi/arm-none-eabi/include/c++/14.3.1/cmath ****     ceil(_Tp __x)
 175:/Applications/ArmGNUToolchain/14.3.rel1/arm-none-eabi/arm-none-eabi/include/c++/14.3.1/cmath ****     { return __builtin_ceil(__x); }
 176:/Applications/ArmGNUToolchain/14.3.rel1/arm-none-eabi/arm-none-eabi/include/c++/14.3.1/cmath **** 
 177:/Applications/ArmGNUToolchain/14.3.rel1/arm-none-eabi/arm-none-eabi/include/c++/14.3.1/cmath ****   using ::cos;
 178:/Applications/ArmGNUToolchain/14.3.rel1/arm-none-eabi/arm-none-eabi/include/c++/14.3.1/cmath **** 
 179:/Applications/ArmGNUToolchain/14.3.rel1/arm-none-eabi/arm-none-eabi/include/c++/14.3.1/cmath **** #ifndef __CORRECT_ISO_CPP_MATH_H_PROTO
 180:/Applications/ArmGNUToolchain/14.3.rel1/arm-none-eabi/arm-none-eabi/include/c++/14.3.1/cmath ****   inline _GLIBCXX_CONSTEXPR float
 181:/Applications/ArmGNUToolchain/14.3.rel1/arm-none-eabi/arm-none-eabi/include/c++/14.3.1/cmath ****   cos(float __x)
 182:/Applications/ArmGNUToolchain/14.3.rel1/arm-none-eabi/arm-none-eabi/include/c++/14.3.1/cmath ****   { return __builtin_cosf(__x); }
 183:/Applications/ArmGNUToolchain/14.3.rel1/arm-none-eabi/arm-none-eabi/include/c++/14.3.1/cmath **** 
 184:/Applications/ArmGNUToolchain/14.3.rel1/arm-none-eabi/arm-none-eabi/include/c++/14.3.1/cmath ****   inline _GLIBCXX_CONSTEXPR long double
 185:/Applications/ArmGNUToolchain/14.3.rel1/arm-none-eabi/arm-none-eabi/include/c++/14.3.1/cmath ****   cos(long double __x)
 186:/Applications/ArmGNUToolchain/14.3.rel1/arm-none-eabi/arm-none-eabi/include/c++/14.3.1/cmath ****   { return __builtin_cosl(__x); }
 187:/Applications/ArmGNUToolchain/14.3.rel1/arm-none-eabi/arm-none-eabi/include/c++/14.3.1/cmath **** #endif
 188:/Applications/ArmGNUToolchain/14.3.rel1/arm-none-eabi/arm-none-eabi/include/c++/14.3.1/cmath **** 
 189:/Applications/ArmGNUToolchain/14.3.rel1/arm-none-eabi/arm-none-eabi/include/c++/14.3.1/cmath ****   template<typename _Tp>
 190:/Applications/ArmGNUToolchain/14.3.rel1/arm-none-eabi/arm-none-eabi/include/c++/14.3.1/cmath ****     inline _GLIBCXX_CONSTEXPR
 191:/Applications/ArmGNUToolchain/14.3.rel1/arm-none-eabi/arm-none-eabi/include/c++/14.3.1/cmath ****     typename __gnu_cxx::__enable_if<__is_integer<_Tp>::__value,
 192:/Applications/ArmGNUToolchain/14.3.rel1/arm-none-eabi/arm-none-eabi/include/c++/14.3.1/cmath ****                                     double>::__type
 193:/Applications/ArmGNUToolchain/14.3.rel1/arm-none-eabi/arm-none-eabi/include/c++/14.3.1/cmath ****     cos(_Tp __x)
 194:/Applications/ArmGNUToolchain/14.3.rel1/arm-none-eabi/arm-none-eabi/include/c++/14.3.1/cmath ****     { return __builtin_cos(__x); }
 195:/Applications/ArmGNUToolchain/14.3.rel1/arm-none-eabi/arm-none-eabi/include/c++/14.3.1/cmath **** 
 196:/Applications/ArmGNUToolchain/14.3.rel1/arm-none-eabi/arm-none-eabi/include/c++/14.3.1/cmath ****   using ::cosh;
 197:/Applications/ArmGNUToolchain/14.3.rel1/arm-none-eabi/arm-none-eabi/include/c++/14.3.1/cmath **** 
 198:/Applications/ArmGNUToolchain/14.3.rel1/arm-none-eabi/arm-none-eabi/include/c++/14.3.1/cmath **** #ifndef __CORRECT_ISO_CPP_MATH_H_PROTO
 199:/Applications/ArmGNUToolchain/14.3.rel1/arm-none-eabi/arm-none-eabi/include/c++/14.3.1/cmath ****   inline _GLIBCXX_CONSTEXPR float
 200:/Applications/ArmGNUToolchain/14.3.rel1/arm-none-eabi/arm-none-eabi/include/c++/14.3.1/cmath ****   cosh(float __x)
 201:/Applications/ArmGNUToolchain/14.3.rel1/arm-none-eabi/arm-none-eabi/include/c++/14.3.1/cmath ****   { return __builtin_coshf(__x); }
 202:/Applications/ArmGNUToolchain/14.3.rel1/arm-none-eabi/arm-none-eabi/include/c++/14.3.1/cmath **** 
 203:/Applications/ArmGNUToolchain/14.3.rel1/arm-none-eabi/arm-none-eabi/include/c++/14.3.1/cmath ****   inline _GLIBCXX_CONSTEXPR long double
 204:/Applications/ArmGNUToolchain/14.3.rel1/arm-none-eabi/arm-none-eabi/include/c++/14.3.1/cmath ****   cosh(long double __x)
 205:/Applications/ArmGNUToolchain/14.3.rel1/arm-none-eabi/arm-none-eabi/include/c++/14.3.1/cmath ****   { return __builtin_coshl(__x); }
 206:/Applications/ArmGNUToolchain/14.3.rel1/arm-none-eabi/arm-none-eabi/include/c++/14.3.1/cmath **** #endif
 207:/Applications/ArmGNUToolchain/14.3.rel1/arm-none-eabi/arm-none-eabi/include/c++/14.3.1/cmath **** 
 208:/Applications/ArmGNUToolchain/14.3.rel1/arm-none-eabi/arm-none-eabi/include/c++/14.3.1/cmath ****   template<typename _Tp>
 209:/Applications/ArmGNUToolchain/14.3.rel1/arm-none-eabi/arm-none-eabi/include/c++/14.3.1/cmath ****     inline _GLIBCXX_CONSTEXPR
 210:/Applications/ArmGNUToolchain/14.3.rel1/arm-none-eabi/arm-none-eabi/include/c++/14.3.1/cmath ****     typename __gnu_cxx::__enable_if<__is_integer<_Tp>::__value,
 211:/Applications/ArmGNUToolchain/14.3.rel1/arm-none-eabi/arm-none-eabi/include/c++/14.3.1/cmath ****                                     double>::__type
 212:/Applications/ArmGNUToolchain/14.3.rel1/arm-none-eabi/arm-none-eabi/include/c++/14.3.1/cmath ****     cosh(_Tp __x)
 213:/Applications/ArmGNUToolchain/14.3.rel1/arm-none-eabi/arm-none-eabi/include/c++/14.3.1/cmath ****     { return __builtin_cosh(__x); }
 214:/Applications/ArmGNUToolchain/14.3.rel1/arm-none-eabi/arm-none-eabi/include/c++/14.3.1/cmath **** 
 215:/Applications/ArmGNUToolchain/14.3.rel1/arm-none-eabi/arm-none-eabi/include/c++/14.3.1/cmath ****   using ::exp;
 216:/Applications/ArmGNUToolchain/14.3.rel1/arm-none-eabi/arm-none-eabi/include/c++/14.3.1/cmath **** 
 217:/Applications/ArmGNUToolchain/14.3.rel1/arm-none-eabi/arm-none-eabi/include/c++/14.3.1/cmath **** #ifndef __CORRECT_ISO_CPP_MATH_H_PROTO
 218:/Applications/ArmGNUToolchain/14.3.rel1/arm-none-eabi/arm-none-eabi/include/c++/14.3.1/cmath ****   inline _GLIBCXX_CONSTEXPR float
 219:/Applications/ArmGNUToolchain/14.3.rel1/arm-none-eabi/arm-none-eabi/include/c++/14.3.1/cmath ****   exp(float __x)
ARM GAS  /var/folders/v1/156fk8j97zv9pzndh61fy7zm0000gn/T//cc9ANSfA.s 			page 67


 220:/Applications/ArmGNUToolchain/14.3.rel1/arm-none-eabi/arm-none-eabi/include/c++/14.3.1/cmath ****   { return __builtin_expf(__x); }
 221:/Applications/ArmGNUToolchain/14.3.rel1/arm-none-eabi/arm-none-eabi/include/c++/14.3.1/cmath **** 
 222:/Applications/ArmGNUToolchain/14.3.rel1/arm-none-eabi/arm-none-eabi/include/c++/14.3.1/cmath ****   inline _GLIBCXX_CONSTEXPR long double
 223:/Applications/ArmGNUToolchain/14.3.rel1/arm-none-eabi/arm-none-eabi/include/c++/14.3.1/cmath ****   exp(long double __x)
 224:/Applications/ArmGNUToolchain/14.3.rel1/arm-none-eabi/arm-none-eabi/include/c++/14.3.1/cmath ****   { return __builtin_expl(__x); }
 225:/Applications/ArmGNUToolchain/14.3.rel1/arm-none-eabi/arm-none-eabi/include/c++/14.3.1/cmath **** #endif
 226:/Applications/ArmGNUToolchain/14.3.rel1/arm-none-eabi/arm-none-eabi/include/c++/14.3.1/cmath **** 
 227:/Applications/ArmGNUToolchain/14.3.rel1/arm-none-eabi/arm-none-eabi/include/c++/14.3.1/cmath ****   template<typename _Tp>
 228:/Applications/ArmGNUToolchain/14.3.rel1/arm-none-eabi/arm-none-eabi/include/c++/14.3.1/cmath ****     inline _GLIBCXX_CONSTEXPR
 229:/Applications/ArmGNUToolchain/14.3.rel1/arm-none-eabi/arm-none-eabi/include/c++/14.3.1/cmath ****     typename __gnu_cxx::__enable_if<__is_integer<_Tp>::__value,
 230:/Applications/ArmGNUToolchain/14.3.rel1/arm-none-eabi/arm-none-eabi/include/c++/14.3.1/cmath ****                                     double>::__type
 231:/Applications/ArmGNUToolchain/14.3.rel1/arm-none-eabi/arm-none-eabi/include/c++/14.3.1/cmath ****     exp(_Tp __x)
 232:/Applications/ArmGNUToolchain/14.3.rel1/arm-none-eabi/arm-none-eabi/include/c++/14.3.1/cmath ****     { return __builtin_exp(__x); }
 233:/Applications/ArmGNUToolchain/14.3.rel1/arm-none-eabi/arm-none-eabi/include/c++/14.3.1/cmath **** 
 234:/Applications/ArmGNUToolchain/14.3.rel1/arm-none-eabi/arm-none-eabi/include/c++/14.3.1/cmath ****   using ::fabs;
 235:/Applications/ArmGNUToolchain/14.3.rel1/arm-none-eabi/arm-none-eabi/include/c++/14.3.1/cmath **** 
 236:/Applications/ArmGNUToolchain/14.3.rel1/arm-none-eabi/arm-none-eabi/include/c++/14.3.1/cmath **** #ifndef __CORRECT_ISO_CPP_MATH_H_PROTO
 237:/Applications/ArmGNUToolchain/14.3.rel1/arm-none-eabi/arm-none-eabi/include/c++/14.3.1/cmath ****   inline _GLIBCXX_CONSTEXPR float
 238:/Applications/ArmGNUToolchain/14.3.rel1/arm-none-eabi/arm-none-eabi/include/c++/14.3.1/cmath ****   fabs(float __x)
 239:/Applications/ArmGNUToolchain/14.3.rel1/arm-none-eabi/arm-none-eabi/include/c++/14.3.1/cmath ****   { return __builtin_fabsf(__x); }
 240:/Applications/ArmGNUToolchain/14.3.rel1/arm-none-eabi/arm-none-eabi/include/c++/14.3.1/cmath **** 
 241:/Applications/ArmGNUToolchain/14.3.rel1/arm-none-eabi/arm-none-eabi/include/c++/14.3.1/cmath ****   inline _GLIBCXX_CONSTEXPR long double
 242:/Applications/ArmGNUToolchain/14.3.rel1/arm-none-eabi/arm-none-eabi/include/c++/14.3.1/cmath ****   fabs(long double __x)
 243:/Applications/ArmGNUToolchain/14.3.rel1/arm-none-eabi/arm-none-eabi/include/c++/14.3.1/cmath ****   { return __builtin_fabsl(__x); }
 244:/Applications/ArmGNUToolchain/14.3.rel1/arm-none-eabi/arm-none-eabi/include/c++/14.3.1/cmath **** #endif
 245:/Applications/ArmGNUToolchain/14.3.rel1/arm-none-eabi/arm-none-eabi/include/c++/14.3.1/cmath **** 
 246:/Applications/ArmGNUToolchain/14.3.rel1/arm-none-eabi/arm-none-eabi/include/c++/14.3.1/cmath ****   template<typename _Tp>
 247:/Applications/ArmGNUToolchain/14.3.rel1/arm-none-eabi/arm-none-eabi/include/c++/14.3.1/cmath ****     inline _GLIBCXX_CONSTEXPR
 248:/Applications/ArmGNUToolchain/14.3.rel1/arm-none-eabi/arm-none-eabi/include/c++/14.3.1/cmath ****     typename __gnu_cxx::__enable_if<__is_integer<_Tp>::__value,
 249:/Applications/ArmGNUToolchain/14.3.rel1/arm-none-eabi/arm-none-eabi/include/c++/14.3.1/cmath ****                                     double>::__type
 250:/Applications/ArmGNUToolchain/14.3.rel1/arm-none-eabi/arm-none-eabi/include/c++/14.3.1/cmath ****     fabs(_Tp __x)
 251:/Applications/ArmGNUToolchain/14.3.rel1/arm-none-eabi/arm-none-eabi/include/c++/14.3.1/cmath ****     { return __builtin_fabs(__x); }
 252:/Applications/ArmGNUToolchain/14.3.rel1/arm-none-eabi/arm-none-eabi/include/c++/14.3.1/cmath **** 
 253:/Applications/ArmGNUToolchain/14.3.rel1/arm-none-eabi/arm-none-eabi/include/c++/14.3.1/cmath ****   using ::floor;
 254:/Applications/ArmGNUToolchain/14.3.rel1/arm-none-eabi/arm-none-eabi/include/c++/14.3.1/cmath **** 
 255:/Applications/ArmGNUToolchain/14.3.rel1/arm-none-eabi/arm-none-eabi/include/c++/14.3.1/cmath **** #ifndef __CORRECT_ISO_CPP_MATH_H_PROTO
 256:/Applications/ArmGNUToolchain/14.3.rel1/arm-none-eabi/arm-none-eabi/include/c++/14.3.1/cmath ****   inline _GLIBCXX_CONSTEXPR float
 257:/Applications/ArmGNUToolchain/14.3.rel1/arm-none-eabi/arm-none-eabi/include/c++/14.3.1/cmath ****   floor(float __x)
 258:/Applications/ArmGNUToolchain/14.3.rel1/arm-none-eabi/arm-none-eabi/include/c++/14.3.1/cmath ****   { return __builtin_floorf(__x); }
 259:/Applications/ArmGNUToolchain/14.3.rel1/arm-none-eabi/arm-none-eabi/include/c++/14.3.1/cmath **** 
 260:/Applications/ArmGNUToolchain/14.3.rel1/arm-none-eabi/arm-none-eabi/include/c++/14.3.1/cmath ****   inline _GLIBCXX_CONSTEXPR long double
 261:/Applications/ArmGNUToolchain/14.3.rel1/arm-none-eabi/arm-none-eabi/include/c++/14.3.1/cmath ****   floor(long double __x)
 262:/Applications/ArmGNUToolchain/14.3.rel1/arm-none-eabi/arm-none-eabi/include/c++/14.3.1/cmath ****   { return __builtin_floorl(__x); }
 263:/Applications/ArmGNUToolchain/14.3.rel1/arm-none-eabi/arm-none-eabi/include/c++/14.3.1/cmath **** #endif
 264:/Applications/ArmGNUToolchain/14.3.rel1/arm-none-eabi/arm-none-eabi/include/c++/14.3.1/cmath **** 
 265:/Applications/ArmGNUToolchain/14.3.rel1/arm-none-eabi/arm-none-eabi/include/c++/14.3.1/cmath ****   template<typename _Tp>
 266:/Applications/ArmGNUToolchain/14.3.rel1/arm-none-eabi/arm-none-eabi/include/c++/14.3.1/cmath ****     inline _GLIBCXX_CONSTEXPR
 267:/Applications/ArmGNUToolchain/14.3.rel1/arm-none-eabi/arm-none-eabi/include/c++/14.3.1/cmath ****     typename __gnu_cxx::__enable_if<__is_integer<_Tp>::__value,
 268:/Applications/ArmGNUToolchain/14.3.rel1/arm-none-eabi/arm-none-eabi/include/c++/14.3.1/cmath ****                                     double>::__type
 269:/Applications/ArmGNUToolchain/14.3.rel1/arm-none-eabi/arm-none-eabi/include/c++/14.3.1/cmath ****     floor(_Tp __x)
 270:/Applications/ArmGNUToolchain/14.3.rel1/arm-none-eabi/arm-none-eabi/include/c++/14.3.1/cmath ****     { return __builtin_floor(__x); }
 271:/Applications/ArmGNUToolchain/14.3.rel1/arm-none-eabi/arm-none-eabi/include/c++/14.3.1/cmath **** 
 272:/Applications/ArmGNUToolchain/14.3.rel1/arm-none-eabi/arm-none-eabi/include/c++/14.3.1/cmath ****   using ::fmod;
 273:/Applications/ArmGNUToolchain/14.3.rel1/arm-none-eabi/arm-none-eabi/include/c++/14.3.1/cmath **** 
 274:/Applications/ArmGNUToolchain/14.3.rel1/arm-none-eabi/arm-none-eabi/include/c++/14.3.1/cmath **** #ifndef __CORRECT_ISO_CPP_MATH_H_PROTO
 275:/Applications/ArmGNUToolchain/14.3.rel1/arm-none-eabi/arm-none-eabi/include/c++/14.3.1/cmath ****   inline _GLIBCXX_CONSTEXPR float
 276:/Applications/ArmGNUToolchain/14.3.rel1/arm-none-eabi/arm-none-eabi/include/c++/14.3.1/cmath ****   fmod(float __x, float __y)
ARM GAS  /var/folders/v1/156fk8j97zv9pzndh61fy7zm0000gn/T//cc9ANSfA.s 			page 68


 277:/Applications/ArmGNUToolchain/14.3.rel1/arm-none-eabi/arm-none-eabi/include/c++/14.3.1/cmath ****   { return __builtin_fmodf(__x, __y); }
 278:/Applications/ArmGNUToolchain/14.3.rel1/arm-none-eabi/arm-none-eabi/include/c++/14.3.1/cmath **** 
 279:/Applications/ArmGNUToolchain/14.3.rel1/arm-none-eabi/arm-none-eabi/include/c++/14.3.1/cmath ****   inline _GLIBCXX_CONSTEXPR long double
 280:/Applications/ArmGNUToolchain/14.3.rel1/arm-none-eabi/arm-none-eabi/include/c++/14.3.1/cmath ****   fmod(long double __x, long double __y)
 281:/Applications/ArmGNUToolchain/14.3.rel1/arm-none-eabi/arm-none-eabi/include/c++/14.3.1/cmath ****   { return __builtin_fmodl(__x, __y); }
 282:/Applications/ArmGNUToolchain/14.3.rel1/arm-none-eabi/arm-none-eabi/include/c++/14.3.1/cmath **** #endif
 283:/Applications/ArmGNUToolchain/14.3.rel1/arm-none-eabi/arm-none-eabi/include/c++/14.3.1/cmath **** 
 284:/Applications/ArmGNUToolchain/14.3.rel1/arm-none-eabi/arm-none-eabi/include/c++/14.3.1/cmath ****   using ::frexp;
 285:/Applications/ArmGNUToolchain/14.3.rel1/arm-none-eabi/arm-none-eabi/include/c++/14.3.1/cmath **** 
 286:/Applications/ArmGNUToolchain/14.3.rel1/arm-none-eabi/arm-none-eabi/include/c++/14.3.1/cmath **** #ifndef __CORRECT_ISO_CPP_MATH_H_PROTO
 287:/Applications/ArmGNUToolchain/14.3.rel1/arm-none-eabi/arm-none-eabi/include/c++/14.3.1/cmath ****   inline float
 288:/Applications/ArmGNUToolchain/14.3.rel1/arm-none-eabi/arm-none-eabi/include/c++/14.3.1/cmath ****   frexp(float __x, int* __exp)
 289:/Applications/ArmGNUToolchain/14.3.rel1/arm-none-eabi/arm-none-eabi/include/c++/14.3.1/cmath ****   { return __builtin_frexpf(__x, __exp); }
 290:/Applications/ArmGNUToolchain/14.3.rel1/arm-none-eabi/arm-none-eabi/include/c++/14.3.1/cmath **** 
 291:/Applications/ArmGNUToolchain/14.3.rel1/arm-none-eabi/arm-none-eabi/include/c++/14.3.1/cmath ****   inline long double
 292:/Applications/ArmGNUToolchain/14.3.rel1/arm-none-eabi/arm-none-eabi/include/c++/14.3.1/cmath ****   frexp(long double __x, int* __exp)
 293:/Applications/ArmGNUToolchain/14.3.rel1/arm-none-eabi/arm-none-eabi/include/c++/14.3.1/cmath ****   { return __builtin_frexpl(__x, __exp); }
 294:/Applications/ArmGNUToolchain/14.3.rel1/arm-none-eabi/arm-none-eabi/include/c++/14.3.1/cmath **** #endif
 295:/Applications/ArmGNUToolchain/14.3.rel1/arm-none-eabi/arm-none-eabi/include/c++/14.3.1/cmath **** 
 296:/Applications/ArmGNUToolchain/14.3.rel1/arm-none-eabi/arm-none-eabi/include/c++/14.3.1/cmath ****   template<typename _Tp>
 297:/Applications/ArmGNUToolchain/14.3.rel1/arm-none-eabi/arm-none-eabi/include/c++/14.3.1/cmath ****     inline _GLIBCXX_CONSTEXPR
 298:/Applications/ArmGNUToolchain/14.3.rel1/arm-none-eabi/arm-none-eabi/include/c++/14.3.1/cmath ****     typename __gnu_cxx::__enable_if<__is_integer<_Tp>::__value, 
 299:/Applications/ArmGNUToolchain/14.3.rel1/arm-none-eabi/arm-none-eabi/include/c++/14.3.1/cmath ****                                     double>::__type
 300:/Applications/ArmGNUToolchain/14.3.rel1/arm-none-eabi/arm-none-eabi/include/c++/14.3.1/cmath ****     frexp(_Tp __x, int* __exp)
 301:/Applications/ArmGNUToolchain/14.3.rel1/arm-none-eabi/arm-none-eabi/include/c++/14.3.1/cmath ****     { return __builtin_frexp(__x, __exp); }
 302:/Applications/ArmGNUToolchain/14.3.rel1/arm-none-eabi/arm-none-eabi/include/c++/14.3.1/cmath **** 
 303:/Applications/ArmGNUToolchain/14.3.rel1/arm-none-eabi/arm-none-eabi/include/c++/14.3.1/cmath ****   using ::ldexp;
 304:/Applications/ArmGNUToolchain/14.3.rel1/arm-none-eabi/arm-none-eabi/include/c++/14.3.1/cmath **** 
 305:/Applications/ArmGNUToolchain/14.3.rel1/arm-none-eabi/arm-none-eabi/include/c++/14.3.1/cmath **** #ifndef __CORRECT_ISO_CPP_MATH_H_PROTO
 306:/Applications/ArmGNUToolchain/14.3.rel1/arm-none-eabi/arm-none-eabi/include/c++/14.3.1/cmath ****   inline _GLIBCXX_CONSTEXPR float
 307:/Applications/ArmGNUToolchain/14.3.rel1/arm-none-eabi/arm-none-eabi/include/c++/14.3.1/cmath ****   ldexp(float __x, int __exp)
 308:/Applications/ArmGNUToolchain/14.3.rel1/arm-none-eabi/arm-none-eabi/include/c++/14.3.1/cmath ****   { return __builtin_ldexpf(__x, __exp); }
 309:/Applications/ArmGNUToolchain/14.3.rel1/arm-none-eabi/arm-none-eabi/include/c++/14.3.1/cmath **** 
 310:/Applications/ArmGNUToolchain/14.3.rel1/arm-none-eabi/arm-none-eabi/include/c++/14.3.1/cmath ****   inline _GLIBCXX_CONSTEXPR long double
 311:/Applications/ArmGNUToolchain/14.3.rel1/arm-none-eabi/arm-none-eabi/include/c++/14.3.1/cmath ****   ldexp(long double __x, int __exp)
 312:/Applications/ArmGNUToolchain/14.3.rel1/arm-none-eabi/arm-none-eabi/include/c++/14.3.1/cmath ****   { return __builtin_ldexpl(__x, __exp); }
 313:/Applications/ArmGNUToolchain/14.3.rel1/arm-none-eabi/arm-none-eabi/include/c++/14.3.1/cmath **** #endif
 314:/Applications/ArmGNUToolchain/14.3.rel1/arm-none-eabi/arm-none-eabi/include/c++/14.3.1/cmath **** 
 315:/Applications/ArmGNUToolchain/14.3.rel1/arm-none-eabi/arm-none-eabi/include/c++/14.3.1/cmath ****   template<typename _Tp>
 316:/Applications/ArmGNUToolchain/14.3.rel1/arm-none-eabi/arm-none-eabi/include/c++/14.3.1/cmath ****     inline _GLIBCXX_CONSTEXPR
 317:/Applications/ArmGNUToolchain/14.3.rel1/arm-none-eabi/arm-none-eabi/include/c++/14.3.1/cmath ****     typename __gnu_cxx::__enable_if<__is_integer<_Tp>::__value, 
 318:/Applications/ArmGNUToolchain/14.3.rel1/arm-none-eabi/arm-none-eabi/include/c++/14.3.1/cmath ****                                     double>::__type
 319:/Applications/ArmGNUToolchain/14.3.rel1/arm-none-eabi/arm-none-eabi/include/c++/14.3.1/cmath ****     ldexp(_Tp __x, int __exp)
 320:/Applications/ArmGNUToolchain/14.3.rel1/arm-none-eabi/arm-none-eabi/include/c++/14.3.1/cmath ****     { return __builtin_ldexp(__x, __exp); }
 321:/Applications/ArmGNUToolchain/14.3.rel1/arm-none-eabi/arm-none-eabi/include/c++/14.3.1/cmath **** 
 322:/Applications/ArmGNUToolchain/14.3.rel1/arm-none-eabi/arm-none-eabi/include/c++/14.3.1/cmath ****   using ::log;
 323:/Applications/ArmGNUToolchain/14.3.rel1/arm-none-eabi/arm-none-eabi/include/c++/14.3.1/cmath **** 
 324:/Applications/ArmGNUToolchain/14.3.rel1/arm-none-eabi/arm-none-eabi/include/c++/14.3.1/cmath **** #ifndef __CORRECT_ISO_CPP_MATH_H_PROTO
 325:/Applications/ArmGNUToolchain/14.3.rel1/arm-none-eabi/arm-none-eabi/include/c++/14.3.1/cmath ****   inline _GLIBCXX_CONSTEXPR float
 326:/Applications/ArmGNUToolchain/14.3.rel1/arm-none-eabi/arm-none-eabi/include/c++/14.3.1/cmath ****   log(float __x)
 327:/Applications/ArmGNUToolchain/14.3.rel1/arm-none-eabi/arm-none-eabi/include/c++/14.3.1/cmath ****   { return __builtin_logf(__x); }
 328:/Applications/ArmGNUToolchain/14.3.rel1/arm-none-eabi/arm-none-eabi/include/c++/14.3.1/cmath **** 
 329:/Applications/ArmGNUToolchain/14.3.rel1/arm-none-eabi/arm-none-eabi/include/c++/14.3.1/cmath ****   inline _GLIBCXX_CONSTEXPR long double
 330:/Applications/ArmGNUToolchain/14.3.rel1/arm-none-eabi/arm-none-eabi/include/c++/14.3.1/cmath ****   log(long double __x)
 331:/Applications/ArmGNUToolchain/14.3.rel1/arm-none-eabi/arm-none-eabi/include/c++/14.3.1/cmath ****   { return __builtin_logl(__x); }
 332:/Applications/ArmGNUToolchain/14.3.rel1/arm-none-eabi/arm-none-eabi/include/c++/14.3.1/cmath **** #endif
 333:/Applications/ArmGNUToolchain/14.3.rel1/arm-none-eabi/arm-none-eabi/include/c++/14.3.1/cmath **** 
ARM GAS  /var/folders/v1/156fk8j97zv9pzndh61fy7zm0000gn/T//cc9ANSfA.s 			page 69


 334:/Applications/ArmGNUToolchain/14.3.rel1/arm-none-eabi/arm-none-eabi/include/c++/14.3.1/cmath ****   template<typename _Tp>
 335:/Applications/ArmGNUToolchain/14.3.rel1/arm-none-eabi/arm-none-eabi/include/c++/14.3.1/cmath ****     inline _GLIBCXX_CONSTEXPR
 336:/Applications/ArmGNUToolchain/14.3.rel1/arm-none-eabi/arm-none-eabi/include/c++/14.3.1/cmath ****     typename __gnu_cxx::__enable_if<__is_integer<_Tp>::__value, 
 337:/Applications/ArmGNUToolchain/14.3.rel1/arm-none-eabi/arm-none-eabi/include/c++/14.3.1/cmath ****                                     double>::__type
 338:/Applications/ArmGNUToolchain/14.3.rel1/arm-none-eabi/arm-none-eabi/include/c++/14.3.1/cmath ****     log(_Tp __x)
 339:/Applications/ArmGNUToolchain/14.3.rel1/arm-none-eabi/arm-none-eabi/include/c++/14.3.1/cmath ****     { return __builtin_log(__x); }
 340:/Applications/ArmGNUToolchain/14.3.rel1/arm-none-eabi/arm-none-eabi/include/c++/14.3.1/cmath **** 
 341:/Applications/ArmGNUToolchain/14.3.rel1/arm-none-eabi/arm-none-eabi/include/c++/14.3.1/cmath ****   using ::log10;
 342:/Applications/ArmGNUToolchain/14.3.rel1/arm-none-eabi/arm-none-eabi/include/c++/14.3.1/cmath **** 
 343:/Applications/ArmGNUToolchain/14.3.rel1/arm-none-eabi/arm-none-eabi/include/c++/14.3.1/cmath **** #ifndef __CORRECT_ISO_CPP_MATH_H_PROTO
 344:/Applications/ArmGNUToolchain/14.3.rel1/arm-none-eabi/arm-none-eabi/include/c++/14.3.1/cmath ****   inline _GLIBCXX_CONSTEXPR float
 345:/Applications/ArmGNUToolchain/14.3.rel1/arm-none-eabi/arm-none-eabi/include/c++/14.3.1/cmath ****   log10(float __x)
 346:/Applications/ArmGNUToolchain/14.3.rel1/arm-none-eabi/arm-none-eabi/include/c++/14.3.1/cmath ****   { return __builtin_log10f(__x); }
 347:/Applications/ArmGNUToolchain/14.3.rel1/arm-none-eabi/arm-none-eabi/include/c++/14.3.1/cmath **** 
 348:/Applications/ArmGNUToolchain/14.3.rel1/arm-none-eabi/arm-none-eabi/include/c++/14.3.1/cmath ****   inline _GLIBCXX_CONSTEXPR long double
 349:/Applications/ArmGNUToolchain/14.3.rel1/arm-none-eabi/arm-none-eabi/include/c++/14.3.1/cmath ****   log10(long double __x)
 350:/Applications/ArmGNUToolchain/14.3.rel1/arm-none-eabi/arm-none-eabi/include/c++/14.3.1/cmath ****   { return __builtin_log10l(__x); }
 351:/Applications/ArmGNUToolchain/14.3.rel1/arm-none-eabi/arm-none-eabi/include/c++/14.3.1/cmath **** #endif
 352:/Applications/ArmGNUToolchain/14.3.rel1/arm-none-eabi/arm-none-eabi/include/c++/14.3.1/cmath **** 
 353:/Applications/ArmGNUToolchain/14.3.rel1/arm-none-eabi/arm-none-eabi/include/c++/14.3.1/cmath ****   template<typename _Tp>
 354:/Applications/ArmGNUToolchain/14.3.rel1/arm-none-eabi/arm-none-eabi/include/c++/14.3.1/cmath ****     inline _GLIBCXX_CONSTEXPR
 355:/Applications/ArmGNUToolchain/14.3.rel1/arm-none-eabi/arm-none-eabi/include/c++/14.3.1/cmath ****     typename __gnu_cxx::__enable_if<__is_integer<_Tp>::__value,
 356:/Applications/ArmGNUToolchain/14.3.rel1/arm-none-eabi/arm-none-eabi/include/c++/14.3.1/cmath ****                                     double>::__type
 357:/Applications/ArmGNUToolchain/14.3.rel1/arm-none-eabi/arm-none-eabi/include/c++/14.3.1/cmath ****     log10(_Tp __x)
 358:/Applications/ArmGNUToolchain/14.3.rel1/arm-none-eabi/arm-none-eabi/include/c++/14.3.1/cmath ****     { return __builtin_log10(__x); }
 359:/Applications/ArmGNUToolchain/14.3.rel1/arm-none-eabi/arm-none-eabi/include/c++/14.3.1/cmath **** 
 360:/Applications/ArmGNUToolchain/14.3.rel1/arm-none-eabi/arm-none-eabi/include/c++/14.3.1/cmath ****   using ::modf;
 361:/Applications/ArmGNUToolchain/14.3.rel1/arm-none-eabi/arm-none-eabi/include/c++/14.3.1/cmath **** 
 362:/Applications/ArmGNUToolchain/14.3.rel1/arm-none-eabi/arm-none-eabi/include/c++/14.3.1/cmath **** #ifndef __CORRECT_ISO_CPP_MATH_H_PROTO
 363:/Applications/ArmGNUToolchain/14.3.rel1/arm-none-eabi/arm-none-eabi/include/c++/14.3.1/cmath ****   inline float
 364:/Applications/ArmGNUToolchain/14.3.rel1/arm-none-eabi/arm-none-eabi/include/c++/14.3.1/cmath ****   modf(float __x, float* __iptr)
 365:/Applications/ArmGNUToolchain/14.3.rel1/arm-none-eabi/arm-none-eabi/include/c++/14.3.1/cmath ****   { return __builtin_modff(__x, __iptr); }
 366:/Applications/ArmGNUToolchain/14.3.rel1/arm-none-eabi/arm-none-eabi/include/c++/14.3.1/cmath **** 
 367:/Applications/ArmGNUToolchain/14.3.rel1/arm-none-eabi/arm-none-eabi/include/c++/14.3.1/cmath ****   inline long double
 368:/Applications/ArmGNUToolchain/14.3.rel1/arm-none-eabi/arm-none-eabi/include/c++/14.3.1/cmath ****   modf(long double __x, long double* __iptr)
 369:/Applications/ArmGNUToolchain/14.3.rel1/arm-none-eabi/arm-none-eabi/include/c++/14.3.1/cmath ****   { return __builtin_modfl(__x, __iptr); }
 370:/Applications/ArmGNUToolchain/14.3.rel1/arm-none-eabi/arm-none-eabi/include/c++/14.3.1/cmath **** #endif
 371:/Applications/ArmGNUToolchain/14.3.rel1/arm-none-eabi/arm-none-eabi/include/c++/14.3.1/cmath **** 
 372:/Applications/ArmGNUToolchain/14.3.rel1/arm-none-eabi/arm-none-eabi/include/c++/14.3.1/cmath ****   using ::pow;
 373:/Applications/ArmGNUToolchain/14.3.rel1/arm-none-eabi/arm-none-eabi/include/c++/14.3.1/cmath **** 
 374:/Applications/ArmGNUToolchain/14.3.rel1/arm-none-eabi/arm-none-eabi/include/c++/14.3.1/cmath **** #ifndef __CORRECT_ISO_CPP_MATH_H_PROTO
 375:/Applications/ArmGNUToolchain/14.3.rel1/arm-none-eabi/arm-none-eabi/include/c++/14.3.1/cmath ****   inline _GLIBCXX_CONSTEXPR float
 376:/Applications/ArmGNUToolchain/14.3.rel1/arm-none-eabi/arm-none-eabi/include/c++/14.3.1/cmath ****   pow(float __x, float __y)
 377:/Applications/ArmGNUToolchain/14.3.rel1/arm-none-eabi/arm-none-eabi/include/c++/14.3.1/cmath ****   { return __builtin_powf(__x, __y); }
 378:/Applications/ArmGNUToolchain/14.3.rel1/arm-none-eabi/arm-none-eabi/include/c++/14.3.1/cmath **** 
 379:/Applications/ArmGNUToolchain/14.3.rel1/arm-none-eabi/arm-none-eabi/include/c++/14.3.1/cmath ****   inline _GLIBCXX_CONSTEXPR long double
 380:/Applications/ArmGNUToolchain/14.3.rel1/arm-none-eabi/arm-none-eabi/include/c++/14.3.1/cmath ****   pow(long double __x, long double __y)
 381:/Applications/ArmGNUToolchain/14.3.rel1/arm-none-eabi/arm-none-eabi/include/c++/14.3.1/cmath ****   { return __builtin_powl(__x, __y); }
 382:/Applications/ArmGNUToolchain/14.3.rel1/arm-none-eabi/arm-none-eabi/include/c++/14.3.1/cmath **** 
 383:/Applications/ArmGNUToolchain/14.3.rel1/arm-none-eabi/arm-none-eabi/include/c++/14.3.1/cmath **** #if __cplusplus < 201103L
 384:/Applications/ArmGNUToolchain/14.3.rel1/arm-none-eabi/arm-none-eabi/include/c++/14.3.1/cmath ****   // _GLIBCXX_RESOLVE_LIB_DEFECTS
 385:/Applications/ArmGNUToolchain/14.3.rel1/arm-none-eabi/arm-none-eabi/include/c++/14.3.1/cmath ****   // DR 550. What should the return type of pow(float,int) be?
 386:/Applications/ArmGNUToolchain/14.3.rel1/arm-none-eabi/arm-none-eabi/include/c++/14.3.1/cmath ****   inline double
 387:/Applications/ArmGNUToolchain/14.3.rel1/arm-none-eabi/arm-none-eabi/include/c++/14.3.1/cmath ****   pow(double __x, int __i)
 388:/Applications/ArmGNUToolchain/14.3.rel1/arm-none-eabi/arm-none-eabi/include/c++/14.3.1/cmath ****   { return __builtin_powi(__x, __i); }
 389:/Applications/ArmGNUToolchain/14.3.rel1/arm-none-eabi/arm-none-eabi/include/c++/14.3.1/cmath **** 
 390:/Applications/ArmGNUToolchain/14.3.rel1/arm-none-eabi/arm-none-eabi/include/c++/14.3.1/cmath ****   inline float
ARM GAS  /var/folders/v1/156fk8j97zv9pzndh61fy7zm0000gn/T//cc9ANSfA.s 			page 70


 391:/Applications/ArmGNUToolchain/14.3.rel1/arm-none-eabi/arm-none-eabi/include/c++/14.3.1/cmath ****   pow(float __x, int __n)
 392:/Applications/ArmGNUToolchain/14.3.rel1/arm-none-eabi/arm-none-eabi/include/c++/14.3.1/cmath ****   { return __builtin_powif(__x, __n); }
 393:/Applications/ArmGNUToolchain/14.3.rel1/arm-none-eabi/arm-none-eabi/include/c++/14.3.1/cmath **** 
 394:/Applications/ArmGNUToolchain/14.3.rel1/arm-none-eabi/arm-none-eabi/include/c++/14.3.1/cmath ****   inline long double
 395:/Applications/ArmGNUToolchain/14.3.rel1/arm-none-eabi/arm-none-eabi/include/c++/14.3.1/cmath ****   pow(long double __x, int __n)
 396:/Applications/ArmGNUToolchain/14.3.rel1/arm-none-eabi/arm-none-eabi/include/c++/14.3.1/cmath ****   { return __builtin_powil(__x, __n); }
 397:/Applications/ArmGNUToolchain/14.3.rel1/arm-none-eabi/arm-none-eabi/include/c++/14.3.1/cmath **** #endif
 398:/Applications/ArmGNUToolchain/14.3.rel1/arm-none-eabi/arm-none-eabi/include/c++/14.3.1/cmath **** #endif
 399:/Applications/ArmGNUToolchain/14.3.rel1/arm-none-eabi/arm-none-eabi/include/c++/14.3.1/cmath **** 
 400:/Applications/ArmGNUToolchain/14.3.rel1/arm-none-eabi/arm-none-eabi/include/c++/14.3.1/cmath ****   using ::sin;
 401:/Applications/ArmGNUToolchain/14.3.rel1/arm-none-eabi/arm-none-eabi/include/c++/14.3.1/cmath **** 
 402:/Applications/ArmGNUToolchain/14.3.rel1/arm-none-eabi/arm-none-eabi/include/c++/14.3.1/cmath **** #ifndef __CORRECT_ISO_CPP_MATH_H_PROTO
 403:/Applications/ArmGNUToolchain/14.3.rel1/arm-none-eabi/arm-none-eabi/include/c++/14.3.1/cmath ****   inline _GLIBCXX_CONSTEXPR float
 404:/Applications/ArmGNUToolchain/14.3.rel1/arm-none-eabi/arm-none-eabi/include/c++/14.3.1/cmath ****   sin(float __x)
 405:/Applications/ArmGNUToolchain/14.3.rel1/arm-none-eabi/arm-none-eabi/include/c++/14.3.1/cmath ****   { return __builtin_sinf(__x); }
 406:/Applications/ArmGNUToolchain/14.3.rel1/arm-none-eabi/arm-none-eabi/include/c++/14.3.1/cmath **** 
 407:/Applications/ArmGNUToolchain/14.3.rel1/arm-none-eabi/arm-none-eabi/include/c++/14.3.1/cmath ****   inline _GLIBCXX_CONSTEXPR long double
 408:/Applications/ArmGNUToolchain/14.3.rel1/arm-none-eabi/arm-none-eabi/include/c++/14.3.1/cmath ****   sin(long double __x)
 409:/Applications/ArmGNUToolchain/14.3.rel1/arm-none-eabi/arm-none-eabi/include/c++/14.3.1/cmath ****   { return __builtin_sinl(__x); }
 410:/Applications/ArmGNUToolchain/14.3.rel1/arm-none-eabi/arm-none-eabi/include/c++/14.3.1/cmath **** #endif
 411:/Applications/ArmGNUToolchain/14.3.rel1/arm-none-eabi/arm-none-eabi/include/c++/14.3.1/cmath **** 
 412:/Applications/ArmGNUToolchain/14.3.rel1/arm-none-eabi/arm-none-eabi/include/c++/14.3.1/cmath ****   template<typename _Tp>
 413:/Applications/ArmGNUToolchain/14.3.rel1/arm-none-eabi/arm-none-eabi/include/c++/14.3.1/cmath ****     inline _GLIBCXX_CONSTEXPR
 414:/Applications/ArmGNUToolchain/14.3.rel1/arm-none-eabi/arm-none-eabi/include/c++/14.3.1/cmath ****     typename __gnu_cxx::__enable_if<__is_integer<_Tp>::__value, 
 415:/Applications/ArmGNUToolchain/14.3.rel1/arm-none-eabi/arm-none-eabi/include/c++/14.3.1/cmath ****                                     double>::__type
 416:/Applications/ArmGNUToolchain/14.3.rel1/arm-none-eabi/arm-none-eabi/include/c++/14.3.1/cmath ****     sin(_Tp __x)
 417:/Applications/ArmGNUToolchain/14.3.rel1/arm-none-eabi/arm-none-eabi/include/c++/14.3.1/cmath ****     { return __builtin_sin(__x); }
 418:/Applications/ArmGNUToolchain/14.3.rel1/arm-none-eabi/arm-none-eabi/include/c++/14.3.1/cmath **** 
 419:/Applications/ArmGNUToolchain/14.3.rel1/arm-none-eabi/arm-none-eabi/include/c++/14.3.1/cmath ****   using ::sinh;
 420:/Applications/ArmGNUToolchain/14.3.rel1/arm-none-eabi/arm-none-eabi/include/c++/14.3.1/cmath **** 
 421:/Applications/ArmGNUToolchain/14.3.rel1/arm-none-eabi/arm-none-eabi/include/c++/14.3.1/cmath **** #ifndef __CORRECT_ISO_CPP_MATH_H_PROTO
 422:/Applications/ArmGNUToolchain/14.3.rel1/arm-none-eabi/arm-none-eabi/include/c++/14.3.1/cmath ****   inline _GLIBCXX_CONSTEXPR float
 423:/Applications/ArmGNUToolchain/14.3.rel1/arm-none-eabi/arm-none-eabi/include/c++/14.3.1/cmath ****   sinh(float __x)
 424:/Applications/ArmGNUToolchain/14.3.rel1/arm-none-eabi/arm-none-eabi/include/c++/14.3.1/cmath ****   { return __builtin_sinhf(__x); }
 425:/Applications/ArmGNUToolchain/14.3.rel1/arm-none-eabi/arm-none-eabi/include/c++/14.3.1/cmath **** 
 426:/Applications/ArmGNUToolchain/14.3.rel1/arm-none-eabi/arm-none-eabi/include/c++/14.3.1/cmath ****   inline _GLIBCXX_CONSTEXPR long double
 427:/Applications/ArmGNUToolchain/14.3.rel1/arm-none-eabi/arm-none-eabi/include/c++/14.3.1/cmath ****   sinh(long double __x)
 428:/Applications/ArmGNUToolchain/14.3.rel1/arm-none-eabi/arm-none-eabi/include/c++/14.3.1/cmath ****   { return __builtin_sinhl(__x); }
 429:/Applications/ArmGNUToolchain/14.3.rel1/arm-none-eabi/arm-none-eabi/include/c++/14.3.1/cmath **** #endif
 430:/Applications/ArmGNUToolchain/14.3.rel1/arm-none-eabi/arm-none-eabi/include/c++/14.3.1/cmath **** 
 431:/Applications/ArmGNUToolchain/14.3.rel1/arm-none-eabi/arm-none-eabi/include/c++/14.3.1/cmath ****   template<typename _Tp>
 432:/Applications/ArmGNUToolchain/14.3.rel1/arm-none-eabi/arm-none-eabi/include/c++/14.3.1/cmath ****     inline _GLIBCXX_CONSTEXPR
 433:/Applications/ArmGNUToolchain/14.3.rel1/arm-none-eabi/arm-none-eabi/include/c++/14.3.1/cmath ****     typename __gnu_cxx::__enable_if<__is_integer<_Tp>::__value, 
 434:/Applications/ArmGNUToolchain/14.3.rel1/arm-none-eabi/arm-none-eabi/include/c++/14.3.1/cmath ****                                     double>::__type
 435:/Applications/ArmGNUToolchain/14.3.rel1/arm-none-eabi/arm-none-eabi/include/c++/14.3.1/cmath ****     sinh(_Tp __x)
 436:/Applications/ArmGNUToolchain/14.3.rel1/arm-none-eabi/arm-none-eabi/include/c++/14.3.1/cmath ****     { return __builtin_sinh(__x); }
 437:/Applications/ArmGNUToolchain/14.3.rel1/arm-none-eabi/arm-none-eabi/include/c++/14.3.1/cmath **** 
 438:/Applications/ArmGNUToolchain/14.3.rel1/arm-none-eabi/arm-none-eabi/include/c++/14.3.1/cmath ****   using ::sqrt;
 439:/Applications/ArmGNUToolchain/14.3.rel1/arm-none-eabi/arm-none-eabi/include/c++/14.3.1/cmath **** 
 440:/Applications/ArmGNUToolchain/14.3.rel1/arm-none-eabi/arm-none-eabi/include/c++/14.3.1/cmath **** #ifndef __CORRECT_ISO_CPP_MATH_H_PROTO
 441:/Applications/ArmGNUToolchain/14.3.rel1/arm-none-eabi/arm-none-eabi/include/c++/14.3.1/cmath ****   inline _GLIBCXX_CONSTEXPR float
 442:/Applications/ArmGNUToolchain/14.3.rel1/arm-none-eabi/arm-none-eabi/include/c++/14.3.1/cmath ****   sqrt(float __x)
 443:/Applications/ArmGNUToolchain/14.3.rel1/arm-none-eabi/arm-none-eabi/include/c++/14.3.1/cmath ****   { return __builtin_sqrtf(__x); }
 444:/Applications/ArmGNUToolchain/14.3.rel1/arm-none-eabi/arm-none-eabi/include/c++/14.3.1/cmath **** 
 445:/Applications/ArmGNUToolchain/14.3.rel1/arm-none-eabi/arm-none-eabi/include/c++/14.3.1/cmath ****   inline _GLIBCXX_CONSTEXPR long double
 446:/Applications/ArmGNUToolchain/14.3.rel1/arm-none-eabi/arm-none-eabi/include/c++/14.3.1/cmath ****   sqrt(long double __x)
 447:/Applications/ArmGNUToolchain/14.3.rel1/arm-none-eabi/arm-none-eabi/include/c++/14.3.1/cmath ****   { return __builtin_sqrtl(__x); }
ARM GAS  /var/folders/v1/156fk8j97zv9pzndh61fy7zm0000gn/T//cc9ANSfA.s 			page 71


 448:/Applications/ArmGNUToolchain/14.3.rel1/arm-none-eabi/arm-none-eabi/include/c++/14.3.1/cmath **** #endif
 449:/Applications/ArmGNUToolchain/14.3.rel1/arm-none-eabi/arm-none-eabi/include/c++/14.3.1/cmath **** 
 450:/Applications/ArmGNUToolchain/14.3.rel1/arm-none-eabi/arm-none-eabi/include/c++/14.3.1/cmath ****   template<typename _Tp>
 451:/Applications/ArmGNUToolchain/14.3.rel1/arm-none-eabi/arm-none-eabi/include/c++/14.3.1/cmath ****     inline _GLIBCXX_CONSTEXPR
 452:/Applications/ArmGNUToolchain/14.3.rel1/arm-none-eabi/arm-none-eabi/include/c++/14.3.1/cmath ****     typename __gnu_cxx::__enable_if<__is_integer<_Tp>::__value, 
 453:/Applications/ArmGNUToolchain/14.3.rel1/arm-none-eabi/arm-none-eabi/include/c++/14.3.1/cmath ****                                     double>::__type
 454:/Applications/ArmGNUToolchain/14.3.rel1/arm-none-eabi/arm-none-eabi/include/c++/14.3.1/cmath ****     sqrt(_Tp __x)
 455:/Applications/ArmGNUToolchain/14.3.rel1/arm-none-eabi/arm-none-eabi/include/c++/14.3.1/cmath ****     { return __builtin_sqrt(__x); }
 456:/Applications/ArmGNUToolchain/14.3.rel1/arm-none-eabi/arm-none-eabi/include/c++/14.3.1/cmath **** 
 457:/Applications/ArmGNUToolchain/14.3.rel1/arm-none-eabi/arm-none-eabi/include/c++/14.3.1/cmath ****   using ::tan;
 458:/Applications/ArmGNUToolchain/14.3.rel1/arm-none-eabi/arm-none-eabi/include/c++/14.3.1/cmath **** 
 459:/Applications/ArmGNUToolchain/14.3.rel1/arm-none-eabi/arm-none-eabi/include/c++/14.3.1/cmath **** #ifndef __CORRECT_ISO_CPP_MATH_H_PROTO
